
linux.bin:     file format elf64-littleaarch64


Disassembly of section .interp:

00000000000002e0 <.interp>:
 2e0:	7379732f 	.inst	0x7379732f ; undefined
 2e4:	2f6d6574 	.inst	0x2f6d6574 ; undefined
 2e8:	2f6e6962 	umlsl	v2.4s, v11.4h, v14.h[6]
 2ec:	6b6e696c 	.inst	0x6b6e696c ; undefined
 2f0:	34367265 	cbz	w5, 6d13c <strerror@plt+0x6760c>
	...

Disassembly of section .note.android.ident:

00000000000002f8 <.note.android.ident>:
 2f8:	00000008 	udf	#8
 2fc:	00000084 	udf	#132
 300:	00000001 	udf	#1
 304:	72646e41 	.inst	0x72646e41 ; undefined
 308:	0064696f 	.inst	0x0064696f ; undefined
 30c:	0000001e 	udf	#30
 310:	63383272 	.inst	0x63383272 ; undefined
	...
 350:	37363331 	tbnz	w17, #6, ffffffffffffc9b4 <strerror@plt+0xffffffffffff6e84>
 354:	38353336 	ldsetb	w21, w22, [x25]
	...

Disassembly of section .dynsym:

0000000000000390 <.dynsym>:
	...
 3a8:	00000001 	udf	#1
 3ac:	00000012 	udf	#18
	...
 3c0:	0000000d 	udf	#13
 3c4:	00000012 	udf	#18
	...
 3d8:	0000001a 	udf	#26
 3dc:	00000012 	udf	#18
	...
 3f0:	0000002c 	udf	#44
 3f4:	00000012 	udf	#18
	...
 408:	00000031 	udf	#49
 40c:	00000012 	udf	#18
	...
 420:	00000038 	udf	#56
 424:	00000012 	udf	#18
	...
 438:	0000003f 	udf	#63
 43c:	00000012 	udf	#18
	...
 450:	00000047 	udf	#71
 454:	00000012 	udf	#18
	...
 468:	0000004e 	udf	#78
 46c:	00000012 	udf	#18
	...
 480:	00000055 	udf	#85
 484:	00000012 	udf	#18
	...
 498:	0000005c 	udf	#92
 49c:	00000012 	udf	#18
	...
 4b0:	00000063 	udf	#99
 4b4:	00000012 	udf	#18
	...
 4c8:	0000006a 	udf	#106
 4cc:	00000011 	udf	#17
	...
 4e0:	00000072 	udf	#114
 4e4:	00000011 	udf	#17
	...
 4f8:	00000079 	udf	#121
 4fc:	00000012 	udf	#18
	...
 510:	00000081 	udf	#129
 514:	00000012 	udf	#18
	...
 528:	00000086 	udf	#134
 52c:	00000012 	udf	#18
	...
 540:	0000008c 	udf	#140
 544:	00000012 	udf	#18
	...
 558:	00000091 	udf	#145
 55c:	00000012 	udf	#18
	...
 570:	00000098 	udf	#152
 574:	00000012 	udf	#18
	...
 588:	0000009f 	udf	#159
 58c:	00000012 	udf	#18
	...
 5a0:	000000a6 	udf	#166
 5a4:	00000012 	udf	#18
	...
 5b8:	000000ad 	udf	#173
 5bc:	00000012 	udf	#18
	...
 5d0:	000000b4 	udf	#180
 5d4:	00000012 	udf	#18
	...
 5e8:	000000bc 	udf	#188
 5ec:	00000012 	udf	#18
	...

Disassembly of section .gnu.version:

0000000000000600 <.gnu.version>:
 600:	00020000 	.inst	0x00020000 ; undefined
 604:	00020002 	.inst	0x00020002 ; undefined
 608:	00020002 	.inst	0x00020002 ; undefined
 60c:	00020002 	.inst	0x00020002 ; undefined
 610:	00020002 	.inst	0x00020002 ; undefined
 614:	00020002 	.inst	0x00020002 ; undefined
 618:	00020002 	.inst	0x00020002 ; undefined
 61c:	00020002 	.inst	0x00020002 ; undefined
 620:	00020002 	.inst	0x00020002 ; undefined
 624:	00020002 	.inst	0x00020002 ; undefined
 628:	00020002 	.inst	0x00020002 ; undefined
 62c:	00020002 	.inst	0x00020002 ; undefined
 630:	00020002 	.inst	0x00020002 ; undefined

Disassembly of section .gnu.version_r:

0000000000000634 <.gnu.version_r>:
 634:	00010001 	.inst	0x00010001 ; undefined
 638:	000000c5 	udf	#197
 63c:	00000010 	udf	#16
 640:	00000000 	udf	#0
 644:	00050d63 	.inst	0x00050d63 ; undefined
 648:	00020000 	.inst	0x00020000 ; undefined
 64c:	000000cd 	udf	#205
 650:	00000000 	udf	#0

Disassembly of section .gnu.hash:

0000000000000658 <.gnu.hash>:
 658:	00000001 	udf	#1
 65c:	0000001a 	udf	#26
 660:	00000001 	udf	#1
 664:	0000001a 	udf	#26
	...

Disassembly of section .dynstr:

0000000000000674 <.dynstr>:
 674:	6c5f5f00 	ldnp	d0, d23, [x24, #496]
 678:	5f636269 	.inst	0x5f636269 ; undefined
 67c:	74696e69 	.inst	0x74696e69 ; undefined
 680:	635f5f00 	.inst	0x635f5f00 ; undefined
 684:	615f6178 	.inst	0x615f6178 ; undefined
 688:	69786574 	ldpsw	x20, x25, [x11, #-64]
 68c:	5f5f0074 	.inst	0x5f5f0074 ; undefined
 690:	69676572 	ldpsw	x18, x25, [x11, #-200]
 694:	72657473 	.inst	0x72657473 ; undefined
 698:	6674615f 	.inst	0x6674615f ; undefined
 69c:	006b726f 	.inst	0x006b726f ; undefined
 6a0:	74617473 	.inst	0x74617473 ; undefined
 6a4:	6d656d00 	ldp	d0, d27, [x8, #-432]
 6a8:	00746573 	.inst	0x00746573 ; undefined
 6ac:	70746567 	adr	x7, e935b <strerror@plt+0xe382b>
 6b0:	73006469 	.inst	0x73006469 ; undefined
 6b4:	6e697270 	uabdl2	v16.4s, v19.8h, v9.8h
 6b8:	67006674 	.inst	0x67006674 ; undefined
 6bc:	6e657465 	uabd	v5.8h, v3.8h, v5.8h
 6c0:	74730076 	.inst	0x74730076 ; undefined
 6c4:	6e656c72 	umin	v18.8h, v3.8h, v5.8h
 6c8:	72747300 	.inst	0x72747300 ; undefined
 6cc:	00707564 	.inst	0x00707564 ; undefined
 6d0:	65747570 	fnmls	z16.h, p5/m, z11.h, z20.h
 6d4:	7300766e 	.inst	0x7300766e ; undefined
 6d8:	6e616373 	rsubhn2	v19.8h, v27.4s, v1.4s
 6dc:	6e650066 	uaddl2	v6.4s, v3.8h, v5.8h
 6e0:	6f726976 	umlsl2	v22.4s, v11.8h, v2.h[7]
 6e4:	7473006e 	.inst	0x7473006e ; undefined
 6e8:	72726564 	.inst	0x72726564 ; undefined
 6ec:	72706600 	.inst	0x72706600 ; undefined
 6f0:	66746e69 	.inst	0x66746e69 ; undefined
 6f4:	69786500 	ldpsw	x0, x25, [x8, #-64]
 6f8:	74610074 	.inst	0x74610074 ; undefined
 6fc:	006c6c6f 	.inst	0x006c6c6f ; undefined
 700:	656d6974 	fnmls	z20.h, p2/m, z11.h, z13.h
 704:	6d656d00 	ldp	d0, d27, [x8, #-432]
 708:	00706d63 	.inst	0x00706d63 ; undefined
 70c:	6c6c6163 	ldnp	d3, d24, [x11, #-320]
 710:	6d00636f 	stp	d15, d24, [x27]
 714:	6f6c6c61 	.inst	0x6f6c6c61 ; undefined
 718:	656d0063 	fmla	z3.h, p0/m, z3.h, z13.h
 71c:	7970636d 	ldrh	w13, [x27, #6192]
 720:	65786500 	fnmls	z0.h, p1/m, z8.h, z24.h
 724:	00707663 	.inst	0x00707663 ; undefined
 728:	72655f5f 	.inst	0x72655f5f ; undefined
 72c:	006f6e72 	.inst	0x006f6e72 ; undefined
 730:	65727473 	fnmls	z19.h, p5/m, z3.h, z18.h
 734:	726f7272 	.inst	0x726f7272 ; undefined
 738:	62696c00 	.inst	0x62696c00 ; undefined
 73c:	6f732e63 	.inst	0x6f732e63 ; undefined
 740:	42494c00 	.inst	0x42494c00 ; undefined
 744:	642f0043 	fmla	z3.h, z2.h, z7.h[1]
 748:	2f617461 	.inst	0x2f617461 ; undefined
 74c:	61746164 	.inst	0x61746164 ; undefined
 750:	6d6f632f 	ldp	d15, d24, [x25, #-272]
 754:	7265742e 	.inst	0x7265742e ; undefined
 758:	2f78756d 	.inst	0x2f78756d ; undefined
 75c:	656c6966 	fnmls	z6.h, p2/m, z11.h, z12.h
 760:	73752f73 	.inst	0x73752f73 ; undefined
 764:	69622f72 	ldpsw	x18, x11, [x27, #-240]
 768:	2e2e2f6e 	uqsub	v14.8b, v27.8b, v14.8b
 76c:	2f2e2e2f 	.inst	0x2f2e2e2f ; undefined
 770:	2f727375 	fcmla	v21.4h, v27.4h, v18.h[1], #270
 774:	0062696c 	.inst	0x0062696c ; undefined
 778:	6462696c 	.inst	0x6462696c ; undefined
 77c:	6f732e6c 	.inst	0x6f732e6c ; undefined
	...

Disassembly of section .rela.dyn:

0000000000000788 <.rela.dyn>:
 788:	00009ce8 	udf	#40168
 78c:	00000000 	udf	#0
 790:	00000401 	udf	#1025
 794:	0000000d 	udf	#13
	...
 7a0:	00009cf0 	udf	#40176
 7a4:	00000000 	udf	#0
 7a8:	00000401 	udf	#1025
 7ac:	0000000e 	udf	#14
	...

Disassembly of section .relr.dyn:

00000000000007b8 <.relr.dyn>:
 7b8:	00009cd0 	udf	#40144
 7bc:	00000000 	udf	#0
 7c0:	00000007 	udf	#7
 7c4:	00000000 	udf	#0
 7c8:	0000ddd0 	udf	#56784
 7cc:	00000000 	udf	#0

Disassembly of section .rela.plt:

00000000000007d0 <.rela.plt>:
 7d0:	00009d10 	udf	#40208
 7d4:	00000000 	udf	#0
 7d8:	00000402 	udf	#1026
 7dc:	00000001 	udf	#1
	...
 7e8:	00009d18 	udf	#40216
 7ec:	00000000 	udf	#0
 7f0:	00000402 	udf	#1026
 7f4:	00000002 	udf	#2
	...
 800:	00009d20 	udf	#40224
 804:	00000000 	udf	#0
 808:	00000402 	udf	#1026
 80c:	00000003 	udf	#3
	...
 818:	00009d28 	udf	#40232
 81c:	00000000 	udf	#0
 820:	00000402 	udf	#1026
 824:	00000004 	udf	#4
	...
 830:	00009d30 	udf	#40240
 834:	00000000 	udf	#0
 838:	00000402 	udf	#1026
 83c:	00000005 	udf	#5
	...
 848:	00009d38 	udf	#40248
 84c:	00000000 	udf	#0
 850:	00000402 	udf	#1026
 854:	00000006 	udf	#6
	...
 860:	00009d40 	udf	#40256
 864:	00000000 	udf	#0
 868:	00000402 	udf	#1026
 86c:	00000007 	udf	#7
	...
 878:	00009d48 	udf	#40264
 87c:	00000000 	udf	#0
 880:	00000402 	udf	#1026
 884:	00000008 	udf	#8
	...
 890:	00009d50 	udf	#40272
 894:	00000000 	udf	#0
 898:	00000402 	udf	#1026
 89c:	00000009 	udf	#9
	...
 8a8:	00009d58 	udf	#40280
 8ac:	00000000 	udf	#0
 8b0:	00000402 	udf	#1026
 8b4:	0000000a 	udf	#10
	...
 8c0:	00009d60 	udf	#40288
 8c4:	00000000 	udf	#0
 8c8:	00000402 	udf	#1026
 8cc:	0000000b 	udf	#11
	...
 8d8:	00009d68 	udf	#40296
 8dc:	00000000 	udf	#0
 8e0:	00000402 	udf	#1026
 8e4:	0000000c 	udf	#12
	...
 8f0:	00009d70 	udf	#40304
 8f4:	00000000 	udf	#0
 8f8:	00000402 	udf	#1026
 8fc:	0000000f 	udf	#15
	...
 908:	00009d78 	udf	#40312
 90c:	00000000 	udf	#0
 910:	00000402 	udf	#1026
 914:	00000010 	udf	#16
	...
 920:	00009d80 	udf	#40320
 924:	00000000 	udf	#0
 928:	00000402 	udf	#1026
 92c:	00000011 	udf	#17
	...
 938:	00009d88 	udf	#40328
 93c:	00000000 	udf	#0
 940:	00000402 	udf	#1026
 944:	00000012 	udf	#18
	...
 950:	00009d90 	udf	#40336
 954:	00000000 	udf	#0
 958:	00000402 	udf	#1026
 95c:	00000013 	udf	#19
	...
 968:	00009d98 	udf	#40344
 96c:	00000000 	udf	#0
 970:	00000402 	udf	#1026
 974:	00000014 	udf	#20
	...
 980:	00009da0 	udf	#40352
 984:	00000000 	udf	#0
 988:	00000402 	udf	#1026
 98c:	00000015 	udf	#21
	...
 998:	00009da8 	udf	#40360
 99c:	00000000 	udf	#0
 9a0:	00000402 	udf	#1026
 9a4:	00000016 	udf	#22
	...
 9b0:	00009db0 	udf	#40368
 9b4:	00000000 	udf	#0
 9b8:	00000402 	udf	#1026
 9bc:	00000017 	udf	#23
	...
 9c8:	00009db8 	udf	#40376
 9cc:	00000000 	udf	#0
 9d0:	00000402 	udf	#1026
 9d4:	00000018 	udf	#24
	...
 9e0:	00009dc0 	udf	#40384
 9e4:	00000000 	udf	#0
 9e8:	00000402 	udf	#1026
 9ec:	00000019 	udf	#25
	...

Disassembly of section .rodata:

00000000000009f8 <.rodata>:
 9f8:	6e203a45 	usqadd	v5.16b, v18.16b
 9fc:	68746965 	.inst	0x68746965 ; undefined
 a00:	61207265 	.inst	0x61207265 ; undefined
 a04:	5b766772 	.inst	0x5b766772 ; undefined
 a08:	6e205d30 	uqrshl	v16.16b, v9.16b, v0.16b
 a0c:	2420726f 	cmplo	p15.b, p4/z, z19.b, #1
 a10:	6f77205f 	umlal2	v31.4s, v2.8h, v7.h[3]
 a14:	2e736b72 	.inst	0x2e736b72 ; undefined
 a18:	73250000 	.inst	0x73250000 ; undefined
 a1c:	73257325 	.inst	0x73257325 ; undefined
 a20:	7325203a 	.inst	0x7325203a ; undefined
 a24:	005f000a 	.inst	0x005f000a ; undefined
 a28:	786c2578 	.inst	0x786c2578 ; undefined
 a2c:	6c253d00 	stnp	d0, d15, [x8, #-432]
 a30:	64252075 	fmul	z21.h, z3.h, z5.h[0]
 a34:	756e3c00 	.inst	0x756e3c00 ; undefined
 a38:	003e6c6c 	.inst	0x003e6c6c ; NYI
 a3c:	2500203a 	cmple	p10.b, p0/z, z1.b, #0
 a40:	2520756c 	.inst	0x2520756c ; undefined
 a44:	00632564 	.inst	0x00632564 ; undefined

Disassembly of section .eh_frame_hdr:

0000000000000a48 <.eh_frame_hdr>:
 a48:	3b031b01 	.inst	0x3b031b01 ; undefined
 a4c:	0000007c 	udf	#124
 a50:	0000000e 	udf	#14
 a54:	0000425c 	udf	#16988
 a58:	00000094 	udf	#148
 a5c:	000042b4 	udf	#17076
 a60:	000000b4 	udf	#180
 a64:	000042c8 	udf	#17096
 a68:	000000c8 	udf	#200
 a6c:	000042e4 	udf	#17124
 a70:	000000dc 	udf	#220
 a74:	000042f4 	udf	#17140
 a78:	000000f0 	udf	#240
 a7c:	00004348 	udf	#17224
 a80:	00000120 	udf	#288
 a84:	000043a8 	udf	#17320
 a88:	00000134 	udf	#308
 a8c:	000044b0 	udf	#17584
 a90:	00000150 	udf	#336
 a94:	000045ac 	udf	#17836
 a98:	00000168 	udf	#360
 a9c:	0000465c 	udf	#18012
 aa0:	00000194 	udf	#404
 aa4:	0000473c 	udf	#18236
 aa8:	000001ac 	udf	#428
 aac:	000048e0 	udf	#18656
 ab0:	000001d8 	udf	#472
 ab4:	000048e4 	udf	#18660
 ab8:	000001ec 	udf	#492
 abc:	00004e58 	udf	#20056
 ac0:	00000218 	udf	#536

Disassembly of section .eh_frame:

0000000000000ac8 <.eh_frame>:
 ac8:	00000010 	udf	#16
 acc:	00000000 	udf	#0
 ad0:	00527a01 	.inst	0x00527a01 ; undefined
 ad4:	011e7c01 	.inst	0x011e7c01 ; undefined
 ad8:	001f0c1b 	.inst	0x001f0c1b ; undefined
 adc:	0000001c 	udf	#28
 ae0:	00000018 	udf	#24
 ae4:	000041c0 	udf	#16832
 ae8:	00000058 	udf	#88
 aec:	442d4400 	.inst	0x442d4400 ; undefined
 af0:	0c48400e 	.inst	0x0c48400e ; undefined
 af4:	029e101d 	.inst	0x029e101d ; undefined
 af8:	0000049d 	udf	#1181
 afc:	00000010 	udf	#16
 b00:	00000038 	udf	#56
 b04:	000041f8 	udf	#16888
 b08:	00000014 	udf	#20
 b0c:	00000000 	udf	#0
 b10:	00000010 	udf	#16
 b14:	0000004c 	udf	#76
 b18:	000041f8 	udf	#16888
 b1c:	0000001c 	udf	#28
 b20:	00000000 	udf	#0
 b24:	00000010 	udf	#16
 b28:	00000060 	udf	#96
 b2c:	00004200 	udf	#16896
 b30:	00000010 	udf	#16
 b34:	00000000 	udf	#0
 b38:	0000002c 	udf	#44
 b3c:	00000074 	udf	#116
 b40:	000041fc 	udf	#16892
 b44:	00000054 	udf	#84
 b48:	442d4400 	.inst	0x442d4400 ; undefined
 b4c:	0c48200e 	.inst	0x0c48200e ; undefined
 b50:	0293201d 	.inst	0x0293201d ; undefined
 b54:	069e0494 	.inst	0x069e0494 ; undefined
 b58:	0c74089d 	.inst	0x0c74089d ; undefined
 b5c:	0e48201f 	.inst	0x0e48201f ; undefined
 b60:	d32d4400 	.inst	0xd32d4400 ; undefined
 b64:	00ddded4 	.inst	0x00ddded4 ; undefined
 b68:	00000010 	udf	#16
 b6c:	000000a4 	udf	#164
 b70:	00004220 	udf	#16928
 b74:	00000060 	udf	#96
 b78:	00000000 	udf	#0
 b7c:	00000018 	udf	#24
 b80:	000000b8 	udf	#184
 b84:	0000426c 	udf	#17004
 b88:	00000108 	udf	#264
 b8c:	200e4400 	.inst	0x200e4400 ; undefined
 b90:	0e010003 	tbl	v3.8b, {v0.16b}, v1.8b
 b94:	00000000 	udf	#0
 b98:	00000014 	udf	#20
 b9c:	000000d4 	udf	#212
 ba0:	00004358 	udf	#17240
 ba4:	000000fc 	udf	#252
 ba8:	200e4400 	.inst	0x200e4400 ; undefined
 bac:	000ef402 	.inst	0x000ef402 ; undefined
 bb0:	00000028 	udf	#40
 bb4:	000000ec 	udf	#236
 bb8:	0000443c 	udf	#17468
 bbc:	000000b0 	udf	#176
 bc0:	c00e4400 	.inst	0xc00e4400 ; undefined
 bc4:	1d0c4c02 	.inst	0x1d0c4c02 ; undefined
 bc8:	9e049c20 	.inst	0x9e049c20 ; undefined
 bcc:	02089d06 	.inst	0x02089d06 ; undefined
 bd0:	c01f0c90 	.inst	0xc01f0c90 ; undefined
 bd4:	000e4c02 	.inst	0x000e4c02 ; undefined
 bd8:	00dddedc 	.inst	0x00dddedc ; undefined
 bdc:	00000014 	udf	#20
 be0:	00000118 	udf	#280
 be4:	000044c0 	udf	#17600
 be8:	000000e0 	udf	#224
 bec:	200e4400 	.inst	0x200e4400 ; undefined
 bf0:	000ed802 	.inst	0x000ed802 ; undefined
 bf4:	00000028 	udf	#40
 bf8:	00000130 	udf	#304
 bfc:	00004588 	udf	#17800
 c00:	000001a4 	udf	#420
 c04:	200e4400 	.inst	0x200e4400 ; undefined
 c08:	201d0c48 	.inst	0x201d0c48 ; undefined
 c0c:	069e049c 	.inst	0x069e049c ; undefined
 c10:	8c03089d 	.inst	0x8c03089d ; undefined
 c14:	201f0c01 	.inst	0x201f0c01 ; undefined
 c18:	dc000e48 	.inst	0xdc000e48 ; undefined
 c1c:	0000ddde 	udf	#56798
 c20:	00000010 	udf	#16
 c24:	0000015c 	udf	#348
 c28:	00004700 	udf	#18176
 c2c:	00000004 	udf	#4
 c30:	00000000 	udf	#0
 c34:	00000028 	udf	#40
 c38:	00000170 	udf	#368
 c3c:	000046f0 	udf	#18160
 c40:	00000574 	udf	#1396
 c44:	c00e4400 	.inst	0xc00e4400 ; undefined
 c48:	1d0c4801 	stlur	b1, [x0, #196]
 c4c:	9d029e10 	.inst	0x9d029e10 ; undefined
 c50:	055c0304 	mov	z4.h, p12/z, #24
 c54:	01c01f0c 	.inst	0x01c01f0c ; undefined
 c58:	de000e48 	.inst	0xde000e48 ; undefined
 c5c:	000000dd 	udf	#221
 c60:	00000028 	udf	#40
 c64:	0000019c 	udf	#412
 c68:	00004c38 	udf	#19512
 c6c:	00000108 	udf	#264
 c70:	500e4400 	adr	x0, 1d4f2 <strerror@plt+0x179c2>
 c74:	101d0c48 	adr	x8, 3adfc <strerror@plt+0x352cc>
 c78:	049d029e 	.inst	0x049d029e ; undefined
 c7c:	1f0cf002 	fmsub	s2, s0, s12, s28
 c80:	000e4850 	.inst	0x000e4850 ; undefined
 c84:	0000ddde 	udf	#56798
	...

Disassembly of section .text:

0000000000004c90 <.text>:
    4c90:	d503249f 	bti	j
    4c94:	d280001d 	mov	x29, #0x0                   	// #0
    4c98:	d280001e 	mov	x30, #0x0                   	// #0
    4c9c:	910003e0 	mov	x0, sp
    4ca0:	14000001 	b	4ca4 <__libc_init@plt-0xd2c>
    4ca4:	d503233f 	paciasp
    4ca8:	d10103ff 	sub	sp, sp, #0x40
    4cac:	a9037bfd 	stp	x29, x30, [sp, #48]
    4cb0:	9100c3fd 	add	x29, sp, #0x30
    4cb4:	b0000028 	adrp	x8, 9000 <strerror@plt+0x34d0>
    4cb8:	b0000029 	adrp	x9, 9000 <strerror@plt+0x34d0>
    4cbc:	6f00e400 	movi	v0.2d, #0x0
    4cc0:	f9466908 	ldr	x8, [x8, #3280]
    4cc4:	f9466d29 	ldr	x9, [x9, #3288]
    4cc8:	cb080128 	sub	x8, x9, x8
    4ccc:	f100051f 	cmp	x8, #0x1
    4cd0:	ad0083e0 	stp	q0, q0, [sp, #16]
    4cd4:	3d8003e0 	str	q0, [sp]
    4cd8:	5400008b 	b.lt	4ce8 <__libc_init@plt-0xce8>  // b.tstop
    4cdc:	d503201f 	nop
    4ce0:	10048748 	adr	x8, ddc8 <strerror@plt+0x8298>
    4ce4:	f9000be8 	str	x8, [sp, #16]
    4ce8:	b0000022 	adrp	x2, 9000 <strerror@plt+0x34d0>
    4cec:	910003e3 	mov	x3, sp
    4cf0:	aa1f03e1 	mov	x1, xzr
    4cf4:	f9467042 	ldr	x2, [x2, #3296]
    4cf8:	94000336 	bl	59d0 <__libc_init@plt>
    4cfc:	d503245f 	bti	c
    4d00:	b4000060 	cbz	x0, 4d0c <__libc_init@plt-0xcc4>
    4d04:	aa0003f0 	mov	x16, x0
    4d08:	d61f0200 	br	x16
    4d0c:	d65f03c0 	ret
    4d10:	d503245f 	bti	c
    4d14:	aa0003e1 	mov	x1, x0
    4d18:	d503201f 	nop
    4d1c:	10ffff00 	adr	x0, 4cfc <__libc_init@plt-0xcd4>
    4d20:	d503201f 	nop
    4d24:	1004a5a2 	adr	x2, e1d8 <strerror@plt+0x86a8>
    4d28:	1400032e 	b	59e0 <__cxa_atexit@plt>
    4d2c:	d503245f 	bti	c
    4d30:	d503201f 	nop
    4d34:	1004a523 	adr	x3, e1d8 <strerror@plt+0x86a8>
    4d38:	1400032e 	b	59f0 <__register_atfork@plt>
    4d3c:	d503233f 	paciasp
    4d40:	a9be7bfd 	stp	x29, x30, [sp, #-32]!
    4d44:	a9014ff4 	stp	x20, x19, [sp, #16]
    4d48:	910003fd 	mov	x29, sp
    4d4c:	b0000033 	adrp	x19, 9000 <strerror@plt+0x34d0>
    4d50:	b0000028 	adrp	x8, 9000 <strerror@plt+0x34d0>
    4d54:	f9466a73 	ldr	x19, [x19, #3280]
    4d58:	f9466d08 	ldr	x8, [x8, #3288]
    4d5c:	eb130108 	subs	x8, x8, x19
    4d60:	54000100 	b.eq	4d80 <__libc_init@plt-0xc50>  // b.none
    4d64:	9343fd08 	asr	x8, x8, #3
    4d68:	8b080e69 	add	x9, x19, x8, lsl #3
    4d6c:	d1000514 	sub	x20, x8, #0x1
    4d70:	f85f8129 	ldur	x9, [x9, #-8]
    4d74:	d63f0120 	blr	x9
    4d78:	aa1403e8 	mov	x8, x20
    4d7c:	b5ffff74 	cbnz	x20, 4d68 <__libc_init@plt-0xc68>
    4d80:	a9414ff4 	ldp	x20, x19, [sp, #16]
    4d84:	a8c27bfd 	ldp	x29, x30, [sp], #32
    4d88:	d50323bf 	autiasp
    4d8c:	d65f03c0 	ret
    4d90:	d0000048 	adrp	x8, e000 <strerror@plt+0x84d0>
    4d94:	3907811f 	strb	wzr, [x8, #480]
    4d98:	d0000048 	adrp	x8, e000 <strerror@plt+0x84d0>
    4d9c:	3907851f 	strb	wzr, [x8, #481]
    4da0:	d0000048 	adrp	x8, e000 <strerror@plt+0x84d0>
    4da4:	3907891f 	strb	wzr, [x8, #482]
    4da8:	14000001 	b	4dac <__libc_init@plt-0xc24>
    4dac:	d0000049 	adrp	x9, e000 <strerror@plt+0x84d0>
    4db0:	39478928 	ldrb	w8, [x9, #482]
    4db4:	39478929 	ldrb	w9, [x9, #482]
    4db8:	2a0903ea 	mov	w10, w9
    4dbc:	d0000049 	adrp	x9, e000 <strerror@plt+0x84d0>
    4dc0:	91078d29 	add	x9, x9, #0x1e3
    4dc4:	8b0a0129 	add	x9, x9, x10
    4dc8:	39000128 	strb	w8, [x9]
    4dcc:	14000001 	b	4dd0 <__libc_init@plt-0xc00>
    4dd0:	d0000049 	adrp	x9, e000 <strerror@plt+0x84d0>
    4dd4:	39478928 	ldrb	w8, [x9, #482]
    4dd8:	11000508 	add	w8, w8, #0x1
    4ddc:	39078928 	strb	w8, [x9, #482]
    4de0:	12001d08 	and	w8, w8, #0xff
    4de4:	35fffe48 	cbnz	w8, 4dac <__libc_init@plt-0xc24>
    4de8:	14000001 	b	4dec <__libc_init@plt-0xbe4>
    4dec:	d65f03c0 	ret
    4df0:	d10083ff 	sub	sp, sp, #0x20
    4df4:	f9000fe0 	str	x0, [sp, #24]
    4df8:	b90017e1 	str	w1, [sp, #20]
    4dfc:	f9400fe8 	ldr	x8, [sp, #24]
    4e00:	f90007e8 	str	x8, [sp, #8]
    4e04:	14000001 	b	4e08 <__libc_init@plt-0xbc8>
    4e08:	b94017e8 	ldr	w8, [sp, #20]
    4e0c:	71000108 	subs	w8, w8, #0x0
    4e10:	5400070d 	b.le	4ef0 <__libc_init@plt-0xae0>
    4e14:	14000001 	b	4e18 <__libc_init@plt-0xbb8>
    4e18:	14000001 	b	4e1c <__libc_init@plt-0xbb4>
    4e1c:	d000004b 	adrp	x11, e000 <strerror@plt+0x84d0>
    4e20:	39478968 	ldrb	w8, [x11, #482]
    4e24:	2a0803ea 	mov	w10, w8
    4e28:	d0000049 	adrp	x9, e000 <strerror@plt+0x84d0>
    4e2c:	91078d29 	add	x9, x9, #0x1e3
    4e30:	aa0903e8 	mov	x8, x9
    4e34:	8b0a0108 	add	x8, x8, x10
    4e38:	39400108 	ldrb	w8, [x8]
    4e3c:	39004fe8 	strb	w8, [sp, #19]
    4e40:	39404fec 	ldrb	w12, [sp, #19]
    4e44:	d000004a 	adrp	x10, e000 <strerror@plt+0x84d0>
    4e48:	39478148 	ldrb	w8, [x10, #480]
    4e4c:	0b0c0108 	add	w8, w8, w12
    4e50:	39078148 	strb	w8, [x10, #480]
    4e54:	f94007e8 	ldr	x8, [sp, #8]
    4e58:	3947896c 	ldrb	w12, [x11, #482]
    4e5c:	b94017ee 	ldr	w14, [sp, #20]
    4e60:	1ace0d8d 	sdiv	w13, w12, w14
    4e64:	1b0e7dad 	mul	w13, w13, w14
    4e68:	6b0d018c 	subs	w12, w12, w13
    4e6c:	386cc90c 	ldrb	w12, [x8, w12, sxtw]
    4e70:	39478148 	ldrb	w8, [x10, #480]
    4e74:	0b0c0108 	add	w8, w8, w12
    4e78:	39078148 	strb	w8, [x10, #480]
    4e7c:	39478148 	ldrb	w8, [x10, #480]
    4e80:	2a0803ec 	mov	w12, w8
    4e84:	aa0903e8 	mov	x8, x9
    4e88:	8b0c0108 	add	x8, x8, x12
    4e8c:	39400108 	ldrb	w8, [x8]
    4e90:	3947896b 	ldrb	w11, [x11, #482]
    4e94:	2a0b03ec 	mov	w12, w11
    4e98:	aa0903eb 	mov	x11, x9
    4e9c:	8b0c016b 	add	x11, x11, x12
    4ea0:	39000168 	strb	w8, [x11]
    4ea4:	39404fe8 	ldrb	w8, [sp, #19]
    4ea8:	3947814a 	ldrb	w10, [x10, #480]
    4eac:	8b0a0129 	add	x9, x9, x10
    4eb0:	39000128 	strb	w8, [x9]
    4eb4:	14000001 	b	4eb8 <__libc_init@plt-0xb18>
    4eb8:	d0000049 	adrp	x9, e000 <strerror@plt+0x84d0>
    4ebc:	39478928 	ldrb	w8, [x9, #482]
    4ec0:	11000508 	add	w8, w8, #0x1
    4ec4:	39078928 	strb	w8, [x9, #482]
    4ec8:	12001d08 	and	w8, w8, #0xff
    4ecc:	35fffa88 	cbnz	w8, 4e1c <__libc_init@plt-0xbb4>
    4ed0:	14000001 	b	4ed4 <__libc_init@plt-0xafc>
    4ed4:	f94007e8 	ldr	x8, [sp, #8]
    4ed8:	91040108 	add	x8, x8, #0x100
    4edc:	f90007e8 	str	x8, [sp, #8]
    4ee0:	b94017e8 	ldr	w8, [sp, #20]
    4ee4:	71040108 	subs	w8, w8, #0x100
    4ee8:	b90017e8 	str	w8, [sp, #20]
    4eec:	17ffffc7 	b	4e08 <__libc_init@plt-0xbc8>
    4ef0:	910083ff 	add	sp, sp, #0x20
    4ef4:	d65f03c0 	ret
    4ef8:	d10083ff 	sub	sp, sp, #0x20
    4efc:	f9000fe0 	str	x0, [sp, #24]
    4f00:	b90017e1 	str	w1, [sp, #20]
    4f04:	f9400fe8 	ldr	x8, [sp, #24]
    4f08:	f90007e8 	str	x8, [sp, #8]
    4f0c:	14000001 	b	4f10 <__libc_init@plt-0xac0>
    4f10:	b94017e8 	ldr	w8, [sp, #20]
    4f14:	71000108 	subs	w8, w8, #0x0
    4f18:	540006ad 	b.le	4fec <__libc_init@plt-0x9e4>
    4f1c:	14000001 	b	4f20 <__libc_init@plt-0xab0>
    4f20:	d0000049 	adrp	x9, e000 <strerror@plt+0x84d0>
    4f24:	39478928 	ldrb	w8, [x9, #482]
    4f28:	11000508 	add	w8, w8, #0x1
    4f2c:	39078928 	strb	w8, [x9, #482]
    4f30:	39478928 	ldrb	w8, [x9, #482]
    4f34:	2a0803eb 	mov	w11, w8
    4f38:	d0000048 	adrp	x8, e000 <strerror@plt+0x84d0>
    4f3c:	91078d08 	add	x8, x8, #0x1e3
    4f40:	aa0803ea 	mov	x10, x8
    4f44:	8b0b014a 	add	x10, x10, x11
    4f48:	3940014a 	ldrb	w10, [x10]
    4f4c:	39004fea 	strb	w10, [sp, #19]
    4f50:	39404fec 	ldrb	w12, [sp, #19]
    4f54:	d000004b 	adrp	x11, e000 <strerror@plt+0x84d0>
    4f58:	3947856a 	ldrb	w10, [x11, #481]
    4f5c:	0b0c014a 	add	w10, w10, w12
    4f60:	3907856a 	strb	w10, [x11, #481]
    4f64:	3947856a 	ldrb	w10, [x11, #481]
    4f68:	2a0a03ec 	mov	w12, w10
    4f6c:	aa0803ea 	mov	x10, x8
    4f70:	8b0c014a 	add	x10, x10, x12
    4f74:	3940014a 	ldrb	w10, [x10]
    4f78:	3947892c 	ldrb	w12, [x9, #482]
    4f7c:	2a0c03ed 	mov	w13, w12
    4f80:	aa0803ec 	mov	x12, x8
    4f84:	8b0d018c 	add	x12, x12, x13
    4f88:	3900018a 	strb	w10, [x12]
    4f8c:	39404fea 	ldrb	w10, [sp, #19]
    4f90:	3947856b 	ldrb	w11, [x11, #481]
    4f94:	2a0b03ec 	mov	w12, w11
    4f98:	aa0803eb 	mov	x11, x8
    4f9c:	8b0c016b 	add	x11, x11, x12
    4fa0:	3900016a 	strb	w10, [x11]
    4fa4:	39478929 	ldrb	w9, [x9, #482]
    4fa8:	3869690a 	ldrb	w10, [x8, x9]
    4fac:	39404fe9 	ldrb	w9, [sp, #19]
    4fb0:	0b0a0129 	add	w9, w9, w10
    4fb4:	39004fe9 	strb	w9, [sp, #19]
    4fb8:	39404fe9 	ldrb	w9, [sp, #19]
    4fbc:	3869690a 	ldrb	w10, [x8, x9]
    4fc0:	f94007e9 	ldr	x9, [sp, #8]
    4fc4:	39400128 	ldrb	w8, [x9]
    4fc8:	4a0a0108 	eor	w8, w8, w10
    4fcc:	39000128 	strb	w8, [x9]
    4fd0:	f94007e8 	ldr	x8, [sp, #8]
    4fd4:	91000508 	add	x8, x8, #0x1
    4fd8:	f90007e8 	str	x8, [sp, #8]
    4fdc:	b94017e8 	ldr	w8, [sp, #20]
    4fe0:	71000508 	subs	w8, w8, #0x1
    4fe4:	b90017e8 	str	w8, [sp, #20]
    4fe8:	17ffffca 	b	4f10 <__libc_init@plt-0xac0>
    4fec:	910083ff 	add	sp, sp, #0x20
    4ff0:	d65f03c0 	ret
    4ff4:	d10503ff 	sub	sp, sp, #0x140
    4ff8:	a9127bfd 	stp	x29, x30, [sp, #288]
    4ffc:	f9009bfc 	str	x28, [sp, #304]
    5000:	910483fd 	add	x29, sp, #0x120
    5004:	f81f03a0 	stur	x0, [x29, #-16]
    5008:	f85f03a0 	ldur	x0, [x29, #-16]
    500c:	910243e1 	add	x1, sp, #0x90
    5010:	9400027c 	bl	5a00 <stat@plt>
    5014:	36f800a0 	tbz	w0, #31, 5028 <__libc_init@plt-0x9a8>
    5018:	14000001 	b	501c <__libc_init@plt-0x9b4>
    501c:	12800008 	mov	w8, #0xffffffff            	// #-1
    5020:	b81fc3a8 	stur	w8, [x29, #-4]
    5024:	1400001b 	b	5090 <__libc_init@plt-0x940>
    5028:	910043e0 	add	x0, sp, #0x10
    502c:	f90007e0 	str	x0, [sp, #8]
    5030:	d2801002 	mov	x2, #0x80                  	// #128
    5034:	2a1f03e1 	mov	w1, wzr
    5038:	94000276 	bl	5a10 <memset@plt>
    503c:	f94007e0 	ldr	x0, [sp, #8]
    5040:	f9404fe8 	ldr	x8, [sp, #152]
    5044:	f9000fe8 	str	x8, [sp, #24]
    5048:	f9404be8 	ldr	x8, [sp, #144]
    504c:	f9000be8 	str	x8, [sp, #16]
    5050:	f9405be8 	ldr	x8, [sp, #176]
    5054:	f9001be8 	str	x8, [sp, #48]
    5058:	b940abe8 	ldr	w8, [sp, #168]
    505c:	b9002be8 	str	w8, [sp, #40]
    5060:	b940afe8 	ldr	w8, [sp, #172]
    5064:	b9002fe8 	str	w8, [sp, #44]
    5068:	f94063e8 	ldr	x8, [sp, #192]
    506c:	f90023e8 	str	x8, [sp, #64]
    5070:	f94077e8 	ldr	x8, [sp, #232]
    5074:	f90037e8 	str	x8, [sp, #104]
    5078:	f9407fe8 	ldr	x8, [sp, #248]
    507c:	f9003fe8 	str	x8, [sp, #120]
    5080:	52801001 	mov	w1, #0x80                  	// #128
    5084:	97ffff5b 	bl	4df0 <__libc_init@plt-0xbe0>
    5088:	b81fc3bf 	stur	wzr, [x29, #-4]
    508c:	14000001 	b	5090 <__libc_init@plt-0x940>
    5090:	b85fc3a0 	ldur	w0, [x29, #-4]
    5094:	f9409bfc 	ldr	x28, [sp, #304]
    5098:	a9527bfd 	ldp	x29, x30, [sp, #288]
    509c:	910503ff 	add	sp, sp, #0x140
    50a0:	d65f03c0 	ret
    50a4:	d10083ff 	sub	sp, sp, #0x20
    50a8:	f9000fe0 	str	x0, [sp, #24]
    50ac:	f9000be1 	str	x1, [sp, #16]
    50b0:	14000001 	b	50b4 <__libc_init@plt-0x91c>
    50b4:	f9400fe8 	ldr	x8, [sp, #24]
    50b8:	52800009 	mov	w9, #0x0                   	// #0
    50bc:	b9000fe9 	str	w9, [sp, #12]
    50c0:	b40001e8 	cbz	x8, 50fc <__libc_init@plt-0x8d4>
    50c4:	14000001 	b	50c8 <__libc_init@plt-0x908>
    50c8:	f9400fe8 	ldr	x8, [sp, #24]
    50cc:	f9400108 	ldr	x8, [x8]
    50d0:	52800009 	mov	w9, #0x0                   	// #0
    50d4:	b9000fe9 	str	w9, [sp, #12]
    50d8:	b4000128 	cbz	x8, 50fc <__libc_init@plt-0x8d4>
    50dc:	14000001 	b	50e0 <__libc_init@plt-0x8f0>
    50e0:	f9400fe8 	ldr	x8, [sp, #24]
    50e4:	f9400108 	ldr	x8, [x8]
    50e8:	f9400be9 	ldr	x9, [sp, #16]
    50ec:	eb090108 	subs	x8, x8, x9
    50f0:	1a9f07e8 	cset	w8, ne	// ne = any
    50f4:	b9000fe8 	str	w8, [sp, #12]
    50f8:	14000001 	b	50fc <__libc_init@plt-0x8d4>
    50fc:	b9400fe8 	ldr	w8, [sp, #12]
    5100:	360000e8 	tbz	w8, #0, 511c <__libc_init@plt-0x8b4>
    5104:	14000001 	b	5108 <__libc_init@plt-0x8c8>
    5108:	14000001 	b	510c <__libc_init@plt-0x8c4>
    510c:	f9400fe8 	ldr	x8, [sp, #24]
    5110:	91002108 	add	x8, x8, #0x8
    5114:	f9000fe8 	str	x8, [sp, #24]
    5118:	17ffffe7 	b	50b4 <__libc_init@plt-0x91c>
    511c:	14000001 	b	5120 <__libc_init@plt-0x8b0>
    5120:	f9400fe8 	ldr	x8, [sp, #24]
    5124:	52800009 	mov	w9, #0x0                   	// #0
    5128:	b9000be9 	str	w9, [sp, #8]
    512c:	b4000108 	cbz	x8, 514c <__libc_init@plt-0x884>
    5130:	14000001 	b	5134 <__libc_init@plt-0x89c>
    5134:	f9400fe8 	ldr	x8, [sp, #24]
    5138:	f9400108 	ldr	x8, [x8]
    513c:	f1000108 	subs	x8, x8, #0x0
    5140:	1a9f07e8 	cset	w8, ne	// ne = any
    5144:	b9000be8 	str	w8, [sp, #8]
    5148:	14000001 	b	514c <__libc_init@plt-0x884>
    514c:	b9400be8 	ldr	w8, [sp, #8]
    5150:	36000168 	tbz	w8, #0, 517c <__libc_init@plt-0x854>
    5154:	14000001 	b	5158 <__libc_init@plt-0x878>
    5158:	f9400fe8 	ldr	x8, [sp, #24]
    515c:	f9400508 	ldr	x8, [x8, #8]
    5160:	f9400fe9 	ldr	x9, [sp, #24]
    5164:	f9000128 	str	x8, [x9]
    5168:	14000001 	b	516c <__libc_init@plt-0x864>
    516c:	f9400fe8 	ldr	x8, [sp, #24]
    5170:	91002108 	add	x8, x8, #0x8
    5174:	f9000fe8 	str	x8, [sp, #24]
    5178:	17ffffea 	b	5120 <__libc_init@plt-0x8b0>
    517c:	910083ff 	add	sp, sp, #0x20
    5180:	d65f03c0 	ret
    5184:	a9be7bfd 	stp	x29, x30, [sp, #-32]!
    5188:	f9000bfc 	str	x28, [sp, #16]
    518c:	910003fd 	mov	x29, sp
    5190:	d10983ff 	sub	sp, sp, #0x260
    5194:	d503201f 	nop
    5198:	10000c88 	adr	x8, 5328 <__libc_init@plt-0x6a8>
    519c:	d503201f 	nop
    51a0:	10ffff29 	adr	x9, 5184 <__libc_init@plt-0x84c>
    51a4:	f90007e9 	str	x9, [sp, #8]
    51a8:	eb090108 	subs	x8, x8, x9
    51ac:	b90017e8 	str	w8, [sp, #20]
    51b0:	b81f83a0 	stur	w0, [x29, #-8]
    51b4:	9400021b 	bl	5a20 <getpid@plt>
    51b8:	2a0003e8 	mov	w8, w0
    51bc:	93407d08 	sxtw	x8, w8
    51c0:	910143e9 	add	x9, sp, #0x50
    51c4:	f9000fe9 	str	x9, [sp, #24]
    51c8:	f9002be8 	str	x8, [sp, #80]
    51cc:	97fffef1 	bl	4d90 <__libc_init@plt-0xc40>
    51d0:	f94007e0 	ldr	x0, [sp, #8]
    51d4:	b94017e1 	ldr	w1, [sp, #20]
    51d8:	97ffff06 	bl	4df0 <__libc_init@plt-0xbe0>
    51dc:	d503201f 	nop
    51e0:	10046000 	adr	x0, dde0 <strerror@plt+0x82b0>
    51e4:	52807ec1 	mov	w1, #0x3f6                 	// #1014
    51e8:	97ffff02 	bl	4df0 <__libc_init@plt-0xbe0>
    51ec:	f9400fe0 	ldr	x0, [sp, #24]
    51f0:	52800101 	mov	w1, #0x8                   	// #8
    51f4:	b90027e1 	str	w1, [sp, #36]
    51f8:	97fffefe 	bl	4df0 <__libc_init@plt-0xbe0>
    51fc:	f9400fe0 	ldr	x0, [sp, #24]
    5200:	b94027e1 	ldr	w1, [sp, #36]
    5204:	97ffff3d 	bl	4ef8 <__libc_init@plt-0xad8>
    5208:	f9402be2 	ldr	x2, [sp, #80]
    520c:	910163e0 	add	x0, sp, #0x58
    5210:	f90017e0 	str	x0, [sp, #40]
    5214:	d503201f 	nop
    5218:	10fdc081 	adr	x1, a28 <__libc_init@plt-0x4fa8>
    521c:	94000205 	bl	5a30 <sprintf@plt>
    5220:	f94017e0 	ldr	x0, [sp, #40]
    5224:	94000207 	bl	5a40 <getenv@plt>
    5228:	aa0003e8 	mov	x8, x0
    522c:	f94017e0 	ldr	x0, [sp, #40]
    5230:	f9001be8 	str	x8, [sp, #48]
    5234:	94000207 	bl	5a50 <strlen@plt>
    5238:	2a0003e8 	mov	w8, w0
    523c:	b90047e8 	str	w8, [sp, #68]
    5240:	f9401be8 	ldr	x8, [sp, #48]
    5244:	b5000208 	cbnz	x8, 5284 <__libc_init@plt-0x74c>
    5248:	14000001 	b	524c <__libc_init@plt-0x784>
    524c:	b98047e9 	ldrsw	x9, [sp, #68]
    5250:	910163e8 	add	x8, sp, #0x58
    5254:	f90003e8 	str	x8, [sp]
    5258:	8b090100 	add	x0, x8, x9
    525c:	f9402be2 	ldr	x2, [sp, #80]
    5260:	b85f83a3 	ldur	w3, [x29, #-8]
    5264:	f0ffffc1 	adrp	x1, 0 <__libc_init@plt-0x59d0>
    5268:	9128b421 	add	x1, x1, #0xa2d
    526c:	940001f1 	bl	5a30 <sprintf@plt>
    5270:	f94003e0 	ldr	x0, [sp]
    5274:	940001fb 	bl	5a60 <strdup@plt>
    5278:	940001fe 	bl	5a70 <putenv@plt>
    527c:	b81fc3bf 	stur	wzr, [x29, #-4]
    5280:	14000025 	b	5314 <__libc_init@plt-0x6bc>
    5284:	f9401be0 	ldr	x0, [sp, #48]
    5288:	f0ffffc1 	adrp	x1, 0 <__libc_init@plt-0x59d0>
    528c:	9128fc21 	add	x1, x1, #0xa3f
    5290:	910123e2 	add	x2, sp, #0x48
    5294:	910103e3 	add	x3, sp, #0x40
    5298:	910163e4 	add	x4, sp, #0x58
    529c:	940001f9 	bl	5a80 <sscanf@plt>
    52a0:	b9003fe0 	str	w0, [sp, #60]
    52a4:	b9403fe8 	ldr	w8, [sp, #60]
    52a8:	71000908 	subs	w8, w8, #0x2
    52ac:	540002e1 	b.ne	5308 <__libc_init@plt-0x6c8>  // b.any
    52b0:	14000001 	b	52b4 <__libc_init@plt-0x71c>
    52b4:	f94027e8 	ldr	x8, [sp, #72]
    52b8:	f9402be9 	ldr	x9, [sp, #80]
    52bc:	eb090108 	subs	x8, x8, x9
    52c0:	54000241 	b.ne	5308 <__libc_init@plt-0x6c8>  // b.any
    52c4:	14000001 	b	52c8 <__libc_init@plt-0x708>
    52c8:	90000028 	adrp	x8, 9000 <strerror@plt+0x34d0>
    52cc:	f9467508 	ldr	x8, [x8, #3304]
    52d0:	f9400100 	ldr	x0, [x8]
    52d4:	f9401be8 	ldr	x8, [sp, #48]
    52d8:	b94047ea 	ldr	w10, [sp, #68]
    52dc:	2a1f03e9 	mov	w9, wzr
    52e0:	6b0a0129 	subs	w9, w9, w10
    52e4:	71000529 	subs	w9, w9, #0x1
    52e8:	8b29c101 	add	x1, x8, w9, sxtw
    52ec:	97ffff6e 	bl	50a4 <__libc_init@plt-0x92c>
    52f0:	b85f83a8 	ldur	w8, [x29, #-8]
    52f4:	b94043e9 	ldr	w9, [sp, #64]
    52f8:	6b090108 	subs	w8, w8, w9
    52fc:	11000508 	add	w8, w8, #0x1
    5300:	b81fc3a8 	stur	w8, [x29, #-4]
    5304:	14000004 	b	5314 <__libc_init@plt-0x6bc>
    5308:	12800008 	mov	w8, #0xffffffff            	// #-1
    530c:	b81fc3a8 	stur	w8, [x29, #-4]
    5310:	14000001 	b	5314 <__libc_init@plt-0x6bc>
    5314:	b85fc3a0 	ldur	w0, [x29, #-4]
    5318:	910983ff 	add	sp, sp, #0x260
    531c:	f9400bfc 	ldr	x28, [sp, #16]
    5320:	a8c27bfd 	ldp	x29, x30, [sp], #32
    5324:	d65f03c0 	ret
    5328:	d65f03c0 	ret
    532c:	d10303ff 	sub	sp, sp, #0xc0
    5330:	a90b7bfd 	stp	x29, x30, [sp, #176]
    5334:	9102c3fd 	add	x29, sp, #0xb0
    5338:	b81f43a0 	stur	w0, [x29, #-12]
    533c:	f81e83a1 	stur	x1, [x29, #-24]
    5340:	f85e83a8 	ldur	x8, [x29, #-24]
    5344:	f9400108 	ldr	x8, [x8]
    5348:	f81c03a8 	stur	x8, [x29, #-64]
    534c:	f85c03a8 	ldur	x8, [x29, #-64]
    5350:	b50000e8 	cbnz	x8, 536c <__libc_init@plt-0x664>
    5354:	14000001 	b	5358 <__libc_init@plt-0x678>
    5358:	f0ffffc0 	adrp	x0, 0 <__libc_init@plt-0x59d0>
    535c:	91289800 	add	x0, x0, #0xa26
    5360:	940001b8 	bl	5a40 <getenv@plt>
    5364:	f81c03a0 	stur	x0, [x29, #-64]
    5368:	14000001 	b	536c <__libc_init@plt-0x664>
    536c:	f85c03a8 	ldur	x8, [x29, #-64]
    5370:	b5000148 	cbnz	x8, 5398 <__libc_init@plt-0x638>
    5374:	14000001 	b	5378 <__libc_init@plt-0x658>
    5378:	90000028 	adrp	x8, 9000 <strerror@plt+0x34d0>
    537c:	f9467908 	ldr	x8, [x8, #3312]
    5380:	f9400100 	ldr	x0, [x8]
    5384:	f0ffffc1 	adrp	x1, 0 <__libc_init@plt-0x59d0>
    5388:	9127e021 	add	x1, x1, #0x9f8
    538c:	940001c1 	bl	5a90 <fprintf@plt>
    5390:	52800020 	mov	w0, #0x1                   	// #1
    5394:	940001c3 	bl	5aa0 <exit@plt>
    5398:	b85f43a0 	ldur	w0, [x29, #-12]
    539c:	97ffff7a 	bl	5184 <__libc_init@plt-0x84c>
    53a0:	b81dc3a0 	stur	w0, [x29, #-36]
    53a4:	97fffe7b 	bl	4d90 <__libc_init@plt-0xc40>
    53a8:	d503201f 	nop
    53ac:	100451a8 	adr	x8, dde0 <strerror@plt+0x82b0>
    53b0:	f81b83a8 	stur	x8, [x29, #-72]
    53b4:	91012d00 	add	x0, x8, #0x4b
    53b8:	52802001 	mov	w1, #0x100                 	// #256
    53bc:	97fffe8d 	bl	4df0 <__libc_init@plt-0xbe0>
    53c0:	f85b83a8 	ldur	x8, [x29, #-72]
    53c4:	9105c500 	add	x0, x8, #0x171
    53c8:	52800821 	mov	w1, #0x41                  	// #65
    53cc:	97fffecb 	bl	4ef8 <__libc_init@plt-0xad8>
    53d0:	f85b83a8 	ldur	x8, [x29, #-72]
    53d4:	9100a500 	add	x0, x8, #0x29
    53d8:	52800021 	mov	w1, #0x1                   	// #1
    53dc:	97fffec7 	bl	4ef8 <__libc_init@plt-0xad8>
    53e0:	f85b83a8 	ldur	x8, [x29, #-72]
    53e4:	3940a508 	ldrb	w8, [x8, #41]
    53e8:	34000268 	cbz	w8, 5434 <__libc_init@plt-0x59c>
    53ec:	14000001 	b	53f0 <__libc_init@plt-0x5e0>
    53f0:	d503201f 	nop
    53f4:	10044f68 	adr	x8, dde0 <strerror@plt+0x82b0>
    53f8:	9100a500 	add	x0, x8, #0x29
    53fc:	940001ad 	bl	5ab0 <atoll@plt>
    5400:	f81b03a0 	stur	x0, [x29, #-80]
    5404:	aa1f03e0 	mov	x0, xzr
    5408:	940001ae 	bl	5ac0 <time@plt>
    540c:	aa0003e8 	mov	x8, x0
    5410:	f85b03a0 	ldur	x0, [x29, #-80]
    5414:	eb080008 	subs	x8, x0, x8
    5418:	540000ea 	b.ge	5434 <__libc_init@plt-0x59c>  // b.tcont
    541c:	14000001 	b	5420 <__libc_init@plt-0x5b0>
    5420:	d503201f 	nop
    5424:	10044de8 	adr	x8, dde0 <strerror@plt+0x82b0>
    5428:	9105c508 	add	x8, x8, #0x171
    542c:	f81f83a8 	stur	x8, [x29, #-8]
    5430:	14000118 	b	5890 <__libc_init@plt-0x140>
    5434:	d503201f 	nop
    5438:	10044d48 	adr	x8, dde0 <strerror@plt+0x82b0>
    543c:	f90023e8 	str	x8, [sp, #64]
    5440:	91075500 	add	x0, x8, #0x1d5
    5444:	52800521 	mov	w1, #0x29                  	// #41
    5448:	97fffeac 	bl	4ef8 <__libc_init@plt-0xad8>
    544c:	f94023e8 	ldr	x8, [sp, #64]
    5450:	91081900 	add	x0, x8, #0x206
    5454:	52800061 	mov	w1, #0x3                   	// #3
    5458:	97fffea8 	bl	4ef8 <__libc_init@plt-0xad8>
    545c:	f94023e8 	ldr	x8, [sp, #64]
    5460:	91005d00 	add	x0, x8, #0x17
    5464:	528001e1 	mov	w1, #0xf                   	// #15
    5468:	97fffea4 	bl	4ef8 <__libc_init@plt-0xad8>
    546c:	f94023e8 	ldr	x8, [sp, #64]
    5470:	91082500 	add	x0, x8, #0x209
    5474:	52800021 	mov	w1, #0x1                   	// #1
    5478:	97fffea0 	bl	4ef8 <__libc_init@plt-0xad8>
    547c:	f94023e8 	ldr	x8, [sp, #64]
    5480:	9106d500 	add	x0, x8, #0x1b5
    5484:	f9002be0 	str	x0, [sp, #80]
    5488:	528002c1 	mov	w1, #0x16                  	// #22
    548c:	b9004fe1 	str	w1, [sp, #76]
    5490:	97fffe9a 	bl	4ef8 <__libc_init@plt-0xad8>
    5494:	b9404fe1 	ldr	w1, [sp, #76]
    5498:	f9402be0 	ldr	x0, [sp, #80]
    549c:	97fffe55 	bl	4df0 <__libc_init@plt-0xbe0>
    54a0:	f94023e8 	ldr	x8, [sp, #64]
    54a4:	b9404fe1 	ldr	w1, [sp, #76]
    54a8:	9100b100 	add	x0, x8, #0x2c
    54ac:	f9002fe0 	str	x0, [sp, #88]
    54b0:	97fffe92 	bl	4ef8 <__libc_init@plt-0xad8>
    54b4:	f9402be0 	ldr	x0, [sp, #80]
    54b8:	f9402fe1 	ldr	x1, [sp, #88]
    54bc:	d28002c2 	mov	x2, #0x16                  	// #22
    54c0:	94000184 	bl	5ad0 <memcmp@plt>
    54c4:	340000e0 	cbz	w0, 54e0 <__libc_init@plt-0x4f0>
    54c8:	14000001 	b	54cc <__libc_init@plt-0x504>
    54cc:	d503201f 	nop
    54d0:	10044888 	adr	x8, dde0 <strerror@plt+0x82b0>
    54d4:	9106d508 	add	x8, x8, #0x1b5
    54d8:	f81f83a8 	stur	x8, [x29, #-8]
    54dc:	140000ed 	b	5890 <__libc_init@plt-0x140>
    54e0:	d503201f 	nop
    54e4:	100447e8 	adr	x8, dde0 <strerror@plt+0x82b0>
    54e8:	91082d00 	add	x0, x8, #0x20b
    54ec:	52800261 	mov	w1, #0x13                  	// #19
    54f0:	97fffe82 	bl	4ef8 <__libc_init@plt-0xad8>
    54f4:	b85dc3a8 	ldur	w8, [x29, #-36]
    54f8:	36f800e8 	tbz	w8, #31, 5514 <__libc_init@plt-0x4bc>
    54fc:	14000001 	b	5500 <__libc_init@plt-0x4d0>
    5500:	d503201f 	nop
    5504:	100446e8 	adr	x8, dde0 <strerror@plt+0x82b0>
    5508:	91082d08 	add	x8, x8, #0x20b
    550c:	f81f83a8 	stur	x8, [x29, #-8]
    5510:	140000e0 	b	5890 <__libc_init@plt-0x140>
    5514:	b85f43a8 	ldur	w8, [x29, #-12]
    5518:	11002909 	add	w9, w8, #0xa
    551c:	2a0903e8 	mov	w8, w9
    5520:	93407d00 	sxtw	x0, w8
    5524:	d2800101 	mov	x1, #0x8                   	// #8
    5528:	9400016e 	bl	5ae0 <calloc@plt>
    552c:	f81c83a0 	stur	x0, [x29, #-56]
    5530:	f85c83a8 	ldur	x8, [x29, #-56]
    5534:	b5000088 	cbnz	x8, 5544 <__libc_init@plt-0x48c>
    5538:	14000001 	b	553c <__libc_init@plt-0x494>
    553c:	f81f83bf 	stur	xzr, [x29, #-8]
    5540:	140000d4 	b	5890 <__libc_init@plt-0x140>
    5544:	b85dc3a8 	ldur	w8, [x29, #-36]
    5548:	340009c8 	cbz	w8, 5680 <__libc_init@plt-0x350>
    554c:	14000001 	b	5550 <__libc_init@plt-0x480>
    5550:	d503201f 	nop
    5554:	10044468 	adr	x8, dde0 <strerror@plt+0x82b0>
    5558:	f9001fe8 	str	x8, [sp, #56]
    555c:	9100a900 	add	x0, x8, #0x2a
    5560:	52800021 	mov	w1, #0x1                   	// #1
    5564:	97fffe65 	bl	4ef8 <__libc_init@plt-0xad8>
    5568:	f9401fe8 	ldr	x8, [sp, #56]
    556c:	3940a908 	ldrb	w8, [x8, #42]
    5570:	350001a8 	cbnz	w8, 55a4 <__libc_init@plt-0x42c>
    5574:	14000001 	b	5578 <__libc_init@plt-0x458>
    5578:	d503201f 	nop
    557c:	10044328 	adr	x8, dde0 <strerror@plt+0x82b0>
    5580:	91075500 	add	x0, x8, #0x1d5
    5584:	97fffe9c 	bl	4ff4 <__libc_init@plt-0x9dc>
    5588:	340000e0 	cbz	w0, 55a4 <__libc_init@plt-0x42c>
    558c:	14000001 	b	5590 <__libc_init@plt-0x440>
    5590:	d503201f 	nop
    5594:	10044268 	adr	x8, dde0 <strerror@plt+0x82b0>
    5598:	91075508 	add	x8, x8, #0x1d5
    559c:	f81f83a8 	stur	x8, [x29, #-8]
    55a0:	140000bc 	b	5890 <__libc_init@plt-0x140>
    55a4:	d503201f 	nop
    55a8:	100441c8 	adr	x8, dde0 <strerror@plt+0x82b0>
    55ac:	f9000fe8 	str	x8, [sp, #24]
    55b0:	9100ad00 	add	x0, x8, #0x2b
    55b4:	52800021 	mov	w1, #0x1                   	// #1
    55b8:	97fffe50 	bl	4ef8 <__libc_init@plt-0xad8>
    55bc:	f9400fe8 	ldr	x8, [sp, #24]
    55c0:	9108e900 	add	x0, x8, #0x23a
    55c4:	52803381 	mov	w1, #0x19c                 	// #412
    55c8:	97fffe4c 	bl	4ef8 <__libc_init@plt-0xad8>
    55cc:	f9400fe8 	ldr	x8, [sp, #24]
    55d0:	910f8900 	add	x0, x8, #0x3e2
    55d4:	f90017e0 	str	x0, [sp, #40]
    55d8:	52800261 	mov	w1, #0x13                  	// #19
    55dc:	b90027e1 	str	w1, [sp, #36]
    55e0:	97fffe46 	bl	4ef8 <__libc_init@plt-0xad8>
    55e4:	b94027e1 	ldr	w1, [sp, #36]
    55e8:	f94017e0 	ldr	x0, [sp, #40]
    55ec:	97fffe01 	bl	4df0 <__libc_init@plt-0xbe0>
    55f0:	f9400fe8 	ldr	x8, [sp, #24]
    55f4:	b94027e1 	ldr	w1, [sp, #36]
    55f8:	91000500 	add	x0, x8, #0x1
    55fc:	f9001be0 	str	x0, [sp, #48]
    5600:	97fffe3e 	bl	4ef8 <__libc_init@plt-0xad8>
    5604:	f94017e0 	ldr	x0, [sp, #40]
    5608:	f9401be1 	ldr	x1, [sp, #48]
    560c:	d2800262 	mov	x2, #0x13                  	// #19
    5610:	94000130 	bl	5ad0 <memcmp@plt>
    5614:	340000e0 	cbz	w0, 5630 <__libc_init@plt-0x3a0>
    5618:	14000001 	b	561c <__libc_init@plt-0x3b4>
    561c:	d503201f 	nop
    5620:	10043e08 	adr	x8, dde0 <strerror@plt+0x82b0>
    5624:	910f8908 	add	x8, x8, #0x3e2
    5628:	f81f83a8 	stur	x8, [x29, #-8]
    562c:	14000099 	b	5890 <__libc_init@plt-0x140>
    5630:	d2823380 	mov	x0, #0x119c                	// #4508
    5634:	9400012f 	bl	5af0 <malloc@plt>
    5638:	f81e03a0 	stur	x0, [x29, #-32]
    563c:	f85e03a8 	ldur	x8, [x29, #-32]
    5640:	b5000088 	cbnz	x8, 5650 <__libc_init@plt-0x380>
    5644:	14000001 	b	5648 <__libc_init@plt-0x388>
    5648:	f81f83bf 	stur	xzr, [x29, #-8]
    564c:	14000091 	b	5890 <__libc_init@plt-0x140>
    5650:	f85e03a0 	ldur	x0, [x29, #-32]
    5654:	d2820002 	mov	x2, #0x1000                	// #4096
    5658:	52800401 	mov	w1, #0x20                  	// #32
    565c:	940000ed 	bl	5a10 <memset@plt>
    5660:	f85e03a8 	ldur	x8, [x29, #-32]
    5664:	91400500 	add	x0, x8, #0x1, lsl #12
    5668:	d2803382 	mov	x2, #0x19c                 	// #412
    566c:	d503201f 	nop
    5670:	10043b88 	adr	x8, dde0 <strerror@plt+0x82b0>
    5674:	9108e901 	add	x1, x8, #0x23a
    5678:	94000122 	bl	5b00 <memcpy@plt>
    567c:	14000019 	b	56e0 <__libc_init@plt-0x2f0>
    5680:	d503201f 	nop
    5684:	10043ae8 	adr	x8, dde0 <strerror@plt+0x82b0>
    5688:	39405d08 	ldrb	w8, [x8, #23]
    568c:	34000228 	cbz	w8, 56d0 <__libc_init@plt-0x300>
    5690:	14000001 	b	5694 <__libc_init@plt-0x33c>
    5694:	d2804000 	mov	x0, #0x200                 	// #512
    5698:	94000116 	bl	5af0 <malloc@plt>
    569c:	f81e03a0 	stur	x0, [x29, #-32]
    56a0:	f85e03a8 	ldur	x8, [x29, #-32]
    56a4:	b5000088 	cbnz	x8, 56b4 <__libc_init@plt-0x31c>
    56a8:	14000001 	b	56ac <__libc_init@plt-0x324>
    56ac:	f81f83bf 	stur	xzr, [x29, #-8]
    56b0:	14000078 	b	5890 <__libc_init@plt-0x140>
    56b4:	f85e03a0 	ldur	x0, [x29, #-32]
    56b8:	f85c03a2 	ldur	x2, [x29, #-64]
    56bc:	d503201f 	nop
    56c0:	10043908 	adr	x8, dde0 <strerror@plt+0x82b0>
    56c4:	91005d01 	add	x1, x8, #0x17
    56c8:	940000da 	bl	5a30 <sprintf@plt>
    56cc:	14000004 	b	56dc <__libc_init@plt-0x2f4>
    56d0:	f85c03a8 	ldur	x8, [x29, #-64]
    56d4:	f81e03a8 	stur	x8, [x29, #-32]
    56d8:	14000001 	b	56dc <__libc_init@plt-0x2f4>
    56dc:	14000001 	b	56e0 <__libc_init@plt-0x2f0>
    56e0:	b81d43bf 	stur	wzr, [x29, #-44]
    56e4:	f85e83a8 	ldur	x8, [x29, #-24]
    56e8:	f9400108 	ldr	x8, [x8]
    56ec:	f85c83a9 	ldur	x9, [x29, #-56]
    56f0:	b89d43aa 	ldursw	x10, [x29, #-44]
    56f4:	2a0a03eb 	mov	w11, w10
    56f8:	1100056b 	add	w11, w11, #0x1
    56fc:	b81d43ab 	stur	w11, [x29, #-44]
    5700:	f82a7928 	str	x8, [x9, x10, lsl #3]
    5704:	b85dc3a8 	ldur	w8, [x29, #-36]
    5708:	34000228 	cbz	w8, 574c <__libc_init@plt-0x284>
    570c:	14000001 	b	5710 <__libc_init@plt-0x2c0>
    5710:	d503201f 	nop
    5714:	10043668 	adr	x8, dde0 <strerror@plt+0x82b0>
    5718:	3940ad08 	ldrb	w8, [x8, #43]
    571c:	34000188 	cbz	w8, 574c <__libc_init@plt-0x284>
    5720:	14000001 	b	5724 <__libc_init@plt-0x2ac>
    5724:	f85c83a9 	ldur	x9, [x29, #-56]
    5728:	b89d43aa 	ldursw	x10, [x29, #-44]
    572c:	2a0a03e8 	mov	w8, w10
    5730:	11000508 	add	w8, w8, #0x1
    5734:	b81d43a8 	stur	w8, [x29, #-44]
    5738:	d503201f 	nop
    573c:	10043528 	adr	x8, dde0 <strerror@plt+0x82b0>
    5740:	9100ad08 	add	x8, x8, #0x2b
    5744:	f82a7928 	str	x8, [x9, x10, lsl #3]
    5748:	14000001 	b	574c <__libc_init@plt-0x284>
    574c:	d503201f 	nop
    5750:	10043488 	adr	x8, dde0 <strerror@plt+0x82b0>
    5754:	39481908 	ldrb	w8, [x8, #518]
    5758:	34000188 	cbz	w8, 5788 <__libc_init@plt-0x248>
    575c:	14000001 	b	5760 <__libc_init@plt-0x270>
    5760:	f85c83a9 	ldur	x9, [x29, #-56]
    5764:	b89d43aa 	ldursw	x10, [x29, #-44]
    5768:	2a0a03e8 	mov	w8, w10
    576c:	11000508 	add	w8, w8, #0x1
    5770:	b81d43a8 	stur	w8, [x29, #-44]
    5774:	d503201f 	nop
    5778:	10043348 	adr	x8, dde0 <strerror@plt+0x82b0>
    577c:	91081908 	add	x8, x8, #0x206
    5780:	f82a7928 	str	x8, [x9, x10, lsl #3]
    5784:	14000001 	b	5788 <__libc_init@plt-0x248>
    5788:	f85e03a8 	ldur	x8, [x29, #-32]
    578c:	f85c83a9 	ldur	x9, [x29, #-56]
    5790:	b89d43aa 	ldursw	x10, [x29, #-44]
    5794:	2a0a03eb 	mov	w11, w10
    5798:	1100056b 	add	w11, w11, #0x1
    579c:	b81d43ab 	stur	w11, [x29, #-44]
    57a0:	f82a7928 	str	x8, [x9, x10, lsl #3]
    57a4:	d503201f 	nop
    57a8:	100431c8 	adr	x8, dde0 <strerror@plt+0x82b0>
    57ac:	39482508 	ldrb	w8, [x8, #521]
    57b0:	34000188 	cbz	w8, 57e0 <__libc_init@plt-0x1f0>
    57b4:	14000001 	b	57b8 <__libc_init@plt-0x218>
    57b8:	f85c83a9 	ldur	x9, [x29, #-56]
    57bc:	b89d43aa 	ldursw	x10, [x29, #-44]
    57c0:	2a0a03e8 	mov	w8, w10
    57c4:	11000508 	add	w8, w8, #0x1
    57c8:	b81d43a8 	stur	w8, [x29, #-44]
    57cc:	d503201f 	nop
    57d0:	10043088 	adr	x8, dde0 <strerror@plt+0x82b0>
    57d4:	91082508 	add	x8, x8, #0x209
    57d8:	f82a7928 	str	x8, [x9, x10, lsl #3]
    57dc:	14000001 	b	57e0 <__libc_init@plt-0x1f0>
    57e0:	b85dc3a8 	ldur	w8, [x29, #-36]
    57e4:	71000508 	subs	w8, w8, #0x1
    57e8:	540000ad 	b.le	57fc <__libc_init@plt-0x1d4>
    57ec:	14000001 	b	57f0 <__libc_init@plt-0x1e0>
    57f0:	b85dc3a8 	ldur	w8, [x29, #-36]
    57f4:	b90017e8 	str	w8, [sp, #20]
    57f8:	14000004 	b	5808 <__libc_init@plt-0x1c8>
    57fc:	2a1f03e8 	mov	w8, wzr
    5800:	b90017e8 	str	w8, [sp, #20]
    5804:	14000001 	b	5808 <__libc_init@plt-0x1c8>
    5808:	b94017e8 	ldr	w8, [sp, #20]
    580c:	b81d83a8 	stur	w8, [x29, #-40]
    5810:	14000001 	b	5814 <__libc_init@plt-0x1bc>
    5814:	b85d83a8 	ldur	w8, [x29, #-40]
    5818:	b85f43a9 	ldur	w9, [x29, #-12]
    581c:	6b090108 	subs	w8, w8, w9
    5820:	540001ea 	b.ge	585c <__libc_init@plt-0x174>  // b.tcont
    5824:	14000001 	b	5828 <__libc_init@plt-0x1a8>
    5828:	f85e83a8 	ldur	x8, [x29, #-24]
    582c:	b89d83a9 	ldursw	x9, [x29, #-40]
    5830:	2a0903ea 	mov	w10, w9
    5834:	1100054a 	add	w10, w10, #0x1
    5838:	b81d83aa 	stur	w10, [x29, #-40]
    583c:	f8697908 	ldr	x8, [x8, x9, lsl #3]
    5840:	f85c83a9 	ldur	x9, [x29, #-56]
    5844:	b89d43aa 	ldursw	x10, [x29, #-44]
    5848:	2a0a03eb 	mov	w11, w10
    584c:	1100056b 	add	w11, w11, #0x1
    5850:	b81d43ab 	stur	w11, [x29, #-44]
    5854:	f82a7928 	str	x8, [x9, x10, lsl #3]
    5858:	17ffffef 	b	5814 <__libc_init@plt-0x1bc>
    585c:	f85c83a9 	ldur	x9, [x29, #-56]
    5860:	b89d43aa 	ldursw	x10, [x29, #-44]
    5864:	aa1f03e8 	mov	x8, xzr
    5868:	f82a7928 	str	x8, [x9, x10, lsl #3]
    586c:	f85c83a1 	ldur	x1, [x29, #-56]
    5870:	d503201f 	nop
    5874:	10042b68 	adr	x8, dde0 <strerror@plt+0x82b0>
    5878:	91075500 	add	x0, x8, #0x1d5
    587c:	f90007e0 	str	x0, [sp, #8]
    5880:	940000a4 	bl	5b10 <execvp@plt>
    5884:	f94007e8 	ldr	x8, [sp, #8]
    5888:	f81f83a8 	stur	x8, [x29, #-8]
    588c:	14000001 	b	5890 <__libc_init@plt-0x140>
    5890:	f85f83a0 	ldur	x0, [x29, #-8]
    5894:	a94b7bfd 	ldp	x29, x30, [sp, #176]
    5898:	910303ff 	add	sp, sp, #0xc0
    589c:	d65f03c0 	ret
    58a0:	d10143ff 	sub	sp, sp, #0x50
    58a4:	a9047bfd 	stp	x29, x30, [sp, #64]
    58a8:	910103fd 	add	x29, sp, #0x40
    58ac:	b81fc3bf 	stur	wzr, [x29, #-4]
    58b0:	b81f83a0 	stur	w0, [x29, #-8]
    58b4:	f81f03a1 	stur	x1, [x29, #-16]
    58b8:	b85f83a0 	ldur	w0, [x29, #-8]
    58bc:	f85f03a1 	ldur	x1, [x29, #-16]
    58c0:	97fffe9b 	bl	532c <__libc_init@plt-0x6a4>
    58c4:	f85f03a8 	ldur	x8, [x29, #-16]
    58c8:	f9000500 	str	x0, [x8, #8]
    58cc:	90000028 	adrp	x8, 9000 <strerror@plt+0x34d0>
    58d0:	f9467908 	ldr	x8, [x8, #3312]
    58d4:	f9400108 	ldr	x8, [x8]
    58d8:	f9000fe8 	str	x8, [sp, #24]
    58dc:	f85f03a8 	ldur	x8, [x29, #-16]
    58e0:	f9400108 	ldr	x8, [x8]
    58e4:	f90013e8 	str	x8, [sp, #32]
    58e8:	9400008e 	bl	5b20 <__errno@plt>
    58ec:	b940000a 	ldr	w10, [x0]
    58f0:	f0ffffc9 	adrp	x9, 0 <__libc_init@plt-0x59d0>
    58f4:	91286529 	add	x9, x9, #0xa19
    58f8:	f0ffffc8 	adrp	x8, 0 <__libc_init@plt-0x59d0>
    58fc:	9128f108 	add	x8, x8, #0xa3c
    5900:	7100014a 	subs	w10, w10, #0x0
    5904:	9a891108 	csel	x8, x8, x9, ne	// ne = any
    5908:	f81e83a8 	stur	x8, [x29, #-24]
    590c:	94000085 	bl	5b20 <__errno@plt>
    5910:	b9400008 	ldr	w8, [x0]
    5914:	340000e8 	cbz	w8, 5930 <__libc_init@plt-0xa0>
    5918:	14000001 	b	591c <__libc_init@plt-0xb4>
    591c:	94000081 	bl	5b20 <__errno@plt>
    5920:	b9400000 	ldr	w0, [x0]
    5924:	94000083 	bl	5b30 <strerror@plt>
    5928:	f9000be0 	str	x0, [sp, #16]
    592c:	14000005 	b	5940 <__libc_init@plt-0x90>
    5930:	f0ffffc8 	adrp	x8, 0 <__libc_init@plt-0x59d0>
    5934:	91286508 	add	x8, x8, #0xa19
    5938:	f9000be8 	str	x8, [sp, #16]
    593c:	14000001 	b	5940 <__libc_init@plt-0x90>
    5940:	f9400be8 	ldr	x8, [sp, #16]
    5944:	f90007e8 	str	x8, [sp, #8]
    5948:	f85f03a8 	ldur	x8, [x29, #-16]
    594c:	f9400508 	ldr	x8, [x8, #8]
    5950:	b40000c8 	cbz	x8, 5968 <__libc_init@plt-0x68>
    5954:	14000001 	b	5958 <__libc_init@plt-0x78>
    5958:	f85f03a8 	ldur	x8, [x29, #-16]
    595c:	f9400508 	ldr	x8, [x8, #8]
    5960:	f90003e8 	str	x8, [sp]
    5964:	14000005 	b	5978 <__libc_init@plt-0x58>
    5968:	f0ffffc8 	adrp	x8, 0 <__libc_init@plt-0x59d0>
    596c:	9128d508 	add	x8, x8, #0xa35
    5970:	f90003e8 	str	x8, [sp]
    5974:	14000001 	b	5978 <__libc_init@plt-0x58>
    5978:	f94007e4 	ldr	x4, [sp, #8]
    597c:	f85e83a3 	ldur	x3, [x29, #-24]
    5980:	f94013e2 	ldr	x2, [sp, #32]
    5984:	f9400fe0 	ldr	x0, [sp, #24]
    5988:	f94003e5 	ldr	x5, [sp]
    598c:	f0ffffc1 	adrp	x1, 0 <__libc_init@plt-0x59d0>
    5990:	91286821 	add	x1, x1, #0xa1a
    5994:	9400003f 	bl	5a90 <fprintf@plt>
    5998:	52800020 	mov	w0, #0x1                   	// #1
    599c:	a9447bfd 	ldp	x29, x30, [sp, #64]
    59a0:	910143ff 	add	sp, sp, #0x50
    59a4:	d65f03c0 	ret

Disassembly of section .plt:

00000000000059b0 <__libc_init@plt-0x20>:
    59b0:	a9bf7bf0 	stp	x16, x30, [sp, #-16]!
    59b4:	90000030 	adrp	x16, 9000 <strerror@plt+0x34d0>
    59b8:	f9468611 	ldr	x17, [x16, #3336]
    59bc:	91342210 	add	x16, x16, #0xd08
    59c0:	d61f0220 	br	x17
    59c4:	d503201f 	nop
    59c8:	d503201f 	nop
    59cc:	d503201f 	nop

00000000000059d0 <__libc_init@plt>:
    59d0:	90000030 	adrp	x16, 9000 <strerror@plt+0x34d0>
    59d4:	f9468a11 	ldr	x17, [x16, #3344]
    59d8:	91344210 	add	x16, x16, #0xd10
    59dc:	d61f0220 	br	x17

00000000000059e0 <__cxa_atexit@plt>:
    59e0:	90000030 	adrp	x16, 9000 <strerror@plt+0x34d0>
    59e4:	f9468e11 	ldr	x17, [x16, #3352]
    59e8:	91346210 	add	x16, x16, #0xd18
    59ec:	d61f0220 	br	x17

00000000000059f0 <__register_atfork@plt>:
    59f0:	90000030 	adrp	x16, 9000 <strerror@plt+0x34d0>
    59f4:	f9469211 	ldr	x17, [x16, #3360]
    59f8:	91348210 	add	x16, x16, #0xd20
    59fc:	d61f0220 	br	x17

0000000000005a00 <stat@plt>:
    5a00:	90000030 	adrp	x16, 9000 <strerror@plt+0x34d0>
    5a04:	f9469611 	ldr	x17, [x16, #3368]
    5a08:	9134a210 	add	x16, x16, #0xd28
    5a0c:	d61f0220 	br	x17

0000000000005a10 <memset@plt>:
    5a10:	90000030 	adrp	x16, 9000 <strerror@plt+0x34d0>
    5a14:	f9469a11 	ldr	x17, [x16, #3376]
    5a18:	9134c210 	add	x16, x16, #0xd30
    5a1c:	d61f0220 	br	x17

0000000000005a20 <getpid@plt>:
    5a20:	90000030 	adrp	x16, 9000 <strerror@plt+0x34d0>
    5a24:	f9469e11 	ldr	x17, [x16, #3384]
    5a28:	9134e210 	add	x16, x16, #0xd38
    5a2c:	d61f0220 	br	x17

0000000000005a30 <sprintf@plt>:
    5a30:	90000030 	adrp	x16, 9000 <strerror@plt+0x34d0>
    5a34:	f946a211 	ldr	x17, [x16, #3392]
    5a38:	91350210 	add	x16, x16, #0xd40
    5a3c:	d61f0220 	br	x17

0000000000005a40 <getenv@plt>:
    5a40:	90000030 	adrp	x16, 9000 <strerror@plt+0x34d0>
    5a44:	f946a611 	ldr	x17, [x16, #3400]
    5a48:	91352210 	add	x16, x16, #0xd48
    5a4c:	d61f0220 	br	x17

0000000000005a50 <strlen@plt>:
    5a50:	90000030 	adrp	x16, 9000 <strerror@plt+0x34d0>
    5a54:	f946aa11 	ldr	x17, [x16, #3408]
    5a58:	91354210 	add	x16, x16, #0xd50
    5a5c:	d61f0220 	br	x17

0000000000005a60 <strdup@plt>:
    5a60:	90000030 	adrp	x16, 9000 <strerror@plt+0x34d0>
    5a64:	f946ae11 	ldr	x17, [x16, #3416]
    5a68:	91356210 	add	x16, x16, #0xd58
    5a6c:	d61f0220 	br	x17

0000000000005a70 <putenv@plt>:
    5a70:	90000030 	adrp	x16, 9000 <strerror@plt+0x34d0>
    5a74:	f946b211 	ldr	x17, [x16, #3424]
    5a78:	91358210 	add	x16, x16, #0xd60
    5a7c:	d61f0220 	br	x17

0000000000005a80 <sscanf@plt>:
    5a80:	90000030 	adrp	x16, 9000 <strerror@plt+0x34d0>
    5a84:	f946b611 	ldr	x17, [x16, #3432]
    5a88:	9135a210 	add	x16, x16, #0xd68
    5a8c:	d61f0220 	br	x17

0000000000005a90 <fprintf@plt>:
    5a90:	90000030 	adrp	x16, 9000 <strerror@plt+0x34d0>
    5a94:	f946ba11 	ldr	x17, [x16, #3440]
    5a98:	9135c210 	add	x16, x16, #0xd70
    5a9c:	d61f0220 	br	x17

0000000000005aa0 <exit@plt>:
    5aa0:	90000030 	adrp	x16, 9000 <strerror@plt+0x34d0>
    5aa4:	f946be11 	ldr	x17, [x16, #3448]
    5aa8:	9135e210 	add	x16, x16, #0xd78
    5aac:	d61f0220 	br	x17

0000000000005ab0 <atoll@plt>:
    5ab0:	90000030 	adrp	x16, 9000 <strerror@plt+0x34d0>
    5ab4:	f946c211 	ldr	x17, [x16, #3456]
    5ab8:	91360210 	add	x16, x16, #0xd80
    5abc:	d61f0220 	br	x17

0000000000005ac0 <time@plt>:
    5ac0:	90000030 	adrp	x16, 9000 <strerror@plt+0x34d0>
    5ac4:	f946c611 	ldr	x17, [x16, #3464]
    5ac8:	91362210 	add	x16, x16, #0xd88
    5acc:	d61f0220 	br	x17

0000000000005ad0 <memcmp@plt>:
    5ad0:	90000030 	adrp	x16, 9000 <strerror@plt+0x34d0>
    5ad4:	f946ca11 	ldr	x17, [x16, #3472]
    5ad8:	91364210 	add	x16, x16, #0xd90
    5adc:	d61f0220 	br	x17

0000000000005ae0 <calloc@plt>:
    5ae0:	90000030 	adrp	x16, 9000 <strerror@plt+0x34d0>
    5ae4:	f946ce11 	ldr	x17, [x16, #3480]
    5ae8:	91366210 	add	x16, x16, #0xd98
    5aec:	d61f0220 	br	x17

0000000000005af0 <malloc@plt>:
    5af0:	90000030 	adrp	x16, 9000 <strerror@plt+0x34d0>
    5af4:	f946d211 	ldr	x17, [x16, #3488]
    5af8:	91368210 	add	x16, x16, #0xda0
    5afc:	d61f0220 	br	x17

0000000000005b00 <memcpy@plt>:
    5b00:	90000030 	adrp	x16, 9000 <strerror@plt+0x34d0>
    5b04:	f946d611 	ldr	x17, [x16, #3496]
    5b08:	9136a210 	add	x16, x16, #0xda8
    5b0c:	d61f0220 	br	x17

0000000000005b10 <execvp@plt>:
    5b10:	90000030 	adrp	x16, 9000 <strerror@plt+0x34d0>
    5b14:	f946da11 	ldr	x17, [x16, #3504]
    5b18:	9136c210 	add	x16, x16, #0xdb0
    5b1c:	d61f0220 	br	x17

0000000000005b20 <__errno@plt>:
    5b20:	90000030 	adrp	x16, 9000 <strerror@plt+0x34d0>
    5b24:	f946de11 	ldr	x17, [x16, #3512]
    5b28:	9136e210 	add	x16, x16, #0xdb8
    5b2c:	d61f0220 	br	x17

0000000000005b30 <strerror@plt>:
    5b30:	90000030 	adrp	x16, 9000 <strerror@plt+0x34d0>
    5b34:	f946e211 	ldr	x17, [x16, #3520]
    5b38:	91370210 	add	x16, x16, #0xdc0
    5b3c:	d61f0220 	br	x17

Disassembly of section .dynamic:

0000000000009b40 <.dynamic>:
    9b40:	0000001d 	udf	#29
    9b44:	00000000 	udf	#0
    9b48:	000000d2 	udf	#210
    9b4c:	00000000 	udf	#0
    9b50:	00000001 	udf	#1
    9b54:	00000000 	udf	#0
    9b58:	00000104 	udf	#260
    9b5c:	00000000 	udf	#0
    9b60:	00000001 	udf	#1
    9b64:	00000000 	udf	#0
    9b68:	000000c5 	udf	#197
    9b6c:	00000000 	udf	#0
    9b70:	0000001e 	udf	#30
    9b74:	00000000 	udf	#0
    9b78:	00000008 	udf	#8
    9b7c:	00000000 	udf	#0
    9b80:	6ffffffb 	.inst	0x6ffffffb ; undefined
    9b84:	00000000 	udf	#0
    9b88:	08000001 	stxrb	w0, w1, [x0]
    9b8c:	00000000 	udf	#0
    9b90:	00000015 	udf	#21
	...
    9ba0:	00000007 	udf	#7
    9ba4:	00000000 	udf	#0
    9ba8:	00000788 	udf	#1928
    9bac:	00000000 	udf	#0
    9bb0:	00000008 	udf	#8
    9bb4:	00000000 	udf	#0
    9bb8:	00000030 	udf	#48
    9bbc:	00000000 	udf	#0
    9bc0:	00000009 	udf	#9
    9bc4:	00000000 	udf	#0
    9bc8:	00000018 	udf	#24
    9bcc:	00000000 	udf	#0
    9bd0:	6fffe000 	.inst	0x6fffe000 ; undefined
    9bd4:	00000000 	udf	#0
    9bd8:	000007b8 	udf	#1976
    9bdc:	00000000 	udf	#0
    9be0:	6fffe001 	.inst	0x6fffe001 ; undefined
    9be4:	00000000 	udf	#0
    9be8:	00000018 	udf	#24
    9bec:	00000000 	udf	#0
    9bf0:	6fffe003 	.inst	0x6fffe003 ; undefined
    9bf4:	00000000 	udf	#0
    9bf8:	00000008 	udf	#8
    9bfc:	00000000 	udf	#0
    9c00:	00000017 	udf	#23
    9c04:	00000000 	udf	#0
    9c08:	000007d0 	udf	#2000
    9c0c:	00000000 	udf	#0
    9c10:	00000002 	udf	#2
    9c14:	00000000 	udf	#0
    9c18:	00000228 	udf	#552
    9c1c:	00000000 	udf	#0
    9c20:	00000003 	udf	#3
    9c24:	00000000 	udf	#0
    9c28:	00009cf8 	udf	#40184
    9c2c:	00000000 	udf	#0
    9c30:	00000014 	udf	#20
    9c34:	00000000 	udf	#0
    9c38:	00000007 	udf	#7
    9c3c:	00000000 	udf	#0
    9c40:	00000006 	udf	#6
    9c44:	00000000 	udf	#0
    9c48:	00000390 	udf	#912
    9c4c:	00000000 	udf	#0
    9c50:	0000000b 	udf	#11
    9c54:	00000000 	udf	#0
    9c58:	00000018 	udf	#24
    9c5c:	00000000 	udf	#0
    9c60:	00000005 	udf	#5
    9c64:	00000000 	udf	#0
    9c68:	00000674 	udf	#1652
    9c6c:	00000000 	udf	#0
    9c70:	0000000a 	udf	#10
    9c74:	00000000 	udf	#0
    9c78:	0000010d 	udf	#269
    9c7c:	00000000 	udf	#0
    9c80:	6ffffef5 	.inst	0x6ffffef5 ; undefined
    9c84:	00000000 	udf	#0
    9c88:	00000658 	udf	#1624
    9c8c:	00000000 	udf	#0
    9c90:	6ffffff0 	.inst	0x6ffffff0 ; undefined
    9c94:	00000000 	udf	#0
    9c98:	00000600 	udf	#1536
    9c9c:	00000000 	udf	#0
    9ca0:	6ffffffe 	.inst	0x6ffffffe ; undefined
    9ca4:	00000000 	udf	#0
    9ca8:	00000634 	udf	#1588
    9cac:	00000000 	udf	#0
    9cb0:	6fffffff 	.inst	0x6fffffff ; undefined
    9cb4:	00000000 	udf	#0
    9cb8:	00000001 	udf	#1
	...

Disassembly of section .got:

0000000000009cd0 <.got>:
	...
    9ce0:	000058a0 	udf	#22688
	...

Disassembly of section .got.plt:

0000000000009cf8 <.got.plt>:
	...
    9d10:	000059b0 	udf	#22960
    9d14:	00000000 	udf	#0
    9d18:	000059b0 	udf	#22960
    9d1c:	00000000 	udf	#0
    9d20:	000059b0 	udf	#22960
    9d24:	00000000 	udf	#0
    9d28:	000059b0 	udf	#22960
    9d2c:	00000000 	udf	#0
    9d30:	000059b0 	udf	#22960
    9d34:	00000000 	udf	#0
    9d38:	000059b0 	udf	#22960
    9d3c:	00000000 	udf	#0
    9d40:	000059b0 	udf	#22960
    9d44:	00000000 	udf	#0
    9d48:	000059b0 	udf	#22960
    9d4c:	00000000 	udf	#0
    9d50:	000059b0 	udf	#22960
    9d54:	00000000 	udf	#0
    9d58:	000059b0 	udf	#22960
    9d5c:	00000000 	udf	#0
    9d60:	000059b0 	udf	#22960
    9d64:	00000000 	udf	#0
    9d68:	000059b0 	udf	#22960
    9d6c:	00000000 	udf	#0
    9d70:	000059b0 	udf	#22960
    9d74:	00000000 	udf	#0
    9d78:	000059b0 	udf	#22960
    9d7c:	00000000 	udf	#0
    9d80:	000059b0 	udf	#22960
    9d84:	00000000 	udf	#0
    9d88:	000059b0 	udf	#22960
    9d8c:	00000000 	udf	#0
    9d90:	000059b0 	udf	#22960
    9d94:	00000000 	udf	#0
    9d98:	000059b0 	udf	#22960
    9d9c:	00000000 	udf	#0
    9da0:	000059b0 	udf	#22960
    9da4:	00000000 	udf	#0
    9da8:	000059b0 	udf	#22960
    9dac:	00000000 	udf	#0
    9db0:	000059b0 	udf	#22960
    9db4:	00000000 	udf	#0
    9db8:	000059b0 	udf	#22960
    9dbc:	00000000 	udf	#0
    9dc0:	000059b0 	udf	#22960
    9dc4:	00000000 	udf	#0

Disassembly of section .data:

000000000000ddc8 <.data>:
    ddc8:	ffffffff 	.inst	0xffffffff ; undefined
    ddcc:	ffffffff 	.inst	0xffffffff ; undefined
    ddd0:	00004d3c 	udf	#19772
	...
    dde0:	ad5a98ff 	ldp	q31, q6, [x7, #848]
    dde4:	a7498221 	.inst	0xa7498221 ; undefined
    dde8:	dd82d177 	.inst	0xdd82d177 ; undefined
    ddec:	2aa2114e 	orn	w14, w10, w2, asr #4
    ddf0:	20f8e281 	.inst	0x20f8e281 ; undefined
    ddf4:	2602ba2a 	.inst	0x2602ba2a ; undefined
    ddf8:	fe2f420d 	.inst	0xfe2f420d ; undefined
    ddfc:	01647aa0 	.inst	0x01647aa0 ; undefined
    de00:	710cc841 	subs	w1, w2, #0x332
    de04:	d219778f 	eor	x15, x28, #0xffffff9fffffff9f
    de08:	446349be 	.inst	0x446349be ; undefined
    de0c:	5dc140fd 	.inst	0x5dc140fd ; undefined
    de10:	dea0545a 	.inst	0xdea0545a ; undefined
    de14:	6bb11c9b 	.inst	0x6bb11c9b ; undefined
    de18:	a2f891c7 	.inst	0xa2f891c7 ; undefined
    de1c:	aa01e328 	orr	x8, x25, x1, lsl #56
    de20:	bd191458 	str	s24, [x2, #6420]
    de24:	c01c0c3e 	.inst	0xc01c0c3e ; undefined
    de28:	b57a470b 	cbnz	x11, 102708 <strerror@plt+0xfcbd8>
    de2c:	3dac8851 	str	q17, [x2, #45600]
    de30:	336c186d 	.inst	0x336c186d ; undefined
    de34:	a14ac7cf 	.inst	0xa14ac7cf ; undefined
    de38:	17ca9bc9 	b	ffffffffff2b4d5c <strerror@plt+0xffffffffff2af22c>
    de3c:	704837c9 	adr	x9, 9e537 <strerror@plt+0x98a07>
    de40:	6f77c58e 	.inst	0x6f77c58e ; undefined
    de44:	48c3051e 	ldlarh	w30, [x8]
    de48:	35fe3fe3 	cbnz	w3, a644 <strerror@plt+0x4b14>
    de4c:	3573abc7 	cbnz	w7, f53c4 <strerror@plt+0xef894>
    de50:	9368dfc3 	sbfx	x3, x30, #40, #16
    de54:	6f34b3a6 	.inst	0x6f34b3a6 ; undefined
    de58:	1786fe4e 	b	fffffffffe1cd790 <strerror@plt+0xfffffffffe1c7c60>
    de5c:	c488cf35 	ldnt1h	{z21.d}, p3/z, [z25.d, x8]
    de60:	b434ff95 	cbz	x21, 77e50 <strerror@plt+0x72320>
    de64:	e9fcf705 	.inst	0xe9fcf705 ; undefined
    de68:	fe1efa36 	.inst	0xfe1efa36 ; undefined
    de6c:	693392a6 	stgp	x6, x4, [x21, #-400]
    de70:	17fc9b71 	b	fffffffffff34c34 <strerror@plt+0xfffffffffff2f104>
    de74:	9c87304e 	ldr	q14, fffffffffff1c47c <strerror@plt+0xfffffffffff1694c>
    de78:	64b40e2e 	.inst	0x64b40e2e ; undefined
    de7c:	73283cdd 	.inst	0x73283cdd ; undefined
    de80:	41275c3c 	.inst	0x41275c3c ; undefined
    de84:	892b2353 	.inst	0x892b2353 ; undefined
    de88:	c5884a1e 	ld1d	{z30.d}, p2/z, [x16, z8.d, uxtw]
    de8c:	4d2ebbdc 	.inst	0x4d2ebbdc ; undefined
    de90:	a5652b57 	.inst	0xa5652b57 ; undefined
    de94:	8b42ec5c 	add	x28, x2, x2, lsr #59
    de98:	d8eff7fa 	prfm	#0x1a, fffffffffffedd94 <strerror@plt+0xfffffffffffe8264>
    de9c:	704b1734 	adr	x20, a4183 <strerror@plt+0x9e653>
    dea0:	c7b27274 	.inst	0xc7b27274 ; undefined
    dea4:	b551dd96 	cbnz	x22, b1a54 <strerror@plt+0xabf24>
    dea8:	047ad928 	.inst	0x047ad928 ; undefined
    deac:	ec51a995 	.inst	0xec51a995 ; undefined
    deb0:	3192b7d4 	.inst	0x3192b7d4 ; undefined
    deb4:	9ebcd4a3 	.inst	0x9ebcd4a3 ; undefined
    deb8:	0077accc 	.inst	0x0077accc ; undefined
    debc:	3871c2c4 	.inst	0x3871c2c4 ; undefined
    dec0:	cc002435 	.inst	0xcc002435 ; undefined
    dec4:	2a815202 	orr	w2, w16, w1, asr #20
    dec8:	c12ffc2c 	.inst	0xc12ffc2c ; undefined
    decc:	7bae81a6 	.inst	0x7bae81a6 ; undefined
    ded0:	dcac4038 	.inst	0xdcac4038 ; undefined
    ded4:	e27a6915 	.inst	0xe27a6915 ; undefined
    ded8:	d9e3f115 	.inst	0xd9e3f115 ; undefined
    dedc:	e91255b4 	.inst	0xe91255b4 ; undefined
    dee0:	7cb51279 	.inst	0x7cb51279 ; undefined
    dee4:	91a73765 	addg	x5, x27, #0x270, #0xd
    dee8:	da53d634 	.inst	0xda53d634 ; undefined
    deec:	8f550157 	.inst	0x8f550157 ; undefined
    def0:	576b0241 	.inst	0x576b0241 ; undefined
    def4:	8139e66b 	.inst	0x8139e66b ; undefined
    def8:	8c5b1cd8 	.inst	0x8c5b1cd8 ; undefined
    defc:	eb766d71 	.inst	0xeb766d71 ; undefined
    df00:	e5682c80 	.inst	0xe5682c80 ; undefined
    df04:	98760f64 	ldrsw	x4, fa0f0 <strerror@plt+0xf45c0>
    df08:	3d73c9e6 	ldr	b6, [x15, #3314]
    df0c:	0dcdc9cb 	ld1r	{v11.2s}, [x14], x13
    df10:	366439cb 	tbz	w11, #12, 6648 <strerror@plt+0xb18>
    df14:	f7b89e1f 	.inst	0xf7b89e1f ; undefined
    df18:	2c8413bb 	stp	s27, s4, [x29], #32
    df1c:	0118fa80 	.inst	0x0118fa80 ; undefined
    df20:	8ae68026 	bic	x6, x1, x6, ror #32
    df24:	76235d90 	.inst	0x76235d90 ; undefined
    df28:	70b39627 	adr	x7, fffffffffff751ef <strerror@plt+0xfffffffffff6f6bf>
    df2c:	c37355a9 	.inst	0xc37355a9 ; undefined
    df30:	7ef03127 	.inst	0x7ef03127 ; undefined
    df34:	1fd09e1c 	fmsub	h28, h16, h16, h7
    df38:	e2a3484d 	.inst	0xe2a3484d ; undefined
    df3c:	72d5b84b 	.inst	0x72d5b84b ; undefined
    df40:	812fef42 	.inst	0x812fef42 ; undefined
    df44:	07414cfb 	.inst	0x07414cfb ; undefined
    df48:	3d77bc94 	ldr	b20, [x4, #3567]
    df4c:	b7f2ea11 	tbnz	x17, #62, 13c8c <strerror@plt+0xe15c>
    df50:	0b8b4938 	add	w24, w9, w11, asr #18
    df54:	8c5ba6a7 	.inst	0x8c5ba6a7 ; undefined
    df58:	3a23a3b4 	.inst	0x3a23a3b4 ; undefined
    df5c:	3eefeaaa 	.inst	0x3eefeaaa ; undefined
    df60:	d77b0816 	.inst	0xd77b0816 ; undefined
    df64:	44047fc8 	.inst	0x44047fc8 ; undefined
    df68:	9834c91d 	ldrsw	x29, 77888 <strerror@plt+0x71d58>
    df6c:	ba63b8b8 	.inst	0xba63b8b8 ; undefined
    df70:	325f38b5 	.inst	0x325f38b5 ; undefined
    df74:	6d354dce 	stp	d14, d19, [x14, #-176]
    df78:	4afdfae0 	.inst	0x4afdfae0 ; undefined
    df7c:	e7549718 	.inst	0xe7549718 ; undefined
    df80:	8cd03209 	.inst	0x8cd03209 ; undefined
    df84:	75273ce5 	.inst	0x75273ce5 ; undefined
    df88:	5f7593e5 	.inst	0x5f7593e5 ; undefined
    df8c:	c964b170 	.inst	0xc964b170 ; undefined
    df90:	d09132e2 	adrp	x2, ffffffff2266b000 <strerror@plt+0xffffffff226654d0>
    df94:	436fc4fb 	.inst	0x436fc4fb ; undefined
    df98:	b8af623e 	ldumaxa	w15, w30, [x17]
    df9c:	4829193d 	.inst	0x4829193d ; undefined
    dfa0:	0e0d378e 	.inst	0x0e0d378e ; undefined
    dfa4:	31474123 	adds	w3, w9, #0x1d0, lsl #12
    dfa8:	c18b0e92 	umlall	za.d[w8, 8:11], z20.h, z11.h[3]
    dfac:	8d96b31b 	.inst	0x8d96b31b ; undefined
    dfb0:	b9098178 	str	w24, [x11, #2432]
    dfb4:	438e6988 	.inst	0x438e6988 ; undefined
    dfb8:	c3c55888 	.inst	0xc3c55888 ; undefined
    dfbc:	40f68da5 	.inst	0x40f68da5 ; undefined
    dfc0:	360dd327 	tbz	w7, #1, 9a24 <strerror@plt+0x3ef4>
    dfc4:	0202b2d8 	.inst	0x0202b2d8 ; undefined
    dfc8:	4c365ccc 	.inst	0x4c365ccc ; undefined
    dfcc:	cbbf87dd 	.inst	0xcbbf87dd ; undefined
    dfd0:	62d0143f 	.inst	0x62d0143f ; undefined
    dfd4:	ddad44f6 	.inst	0xddad44f6 ; undefined
    dfd8:	6aa14a30 	bics	w16, w17, w1, asr #18
    dfdc:	759dad83 	.inst	0x759dad83 ; undefined
    dfe0:	ea87db00 	ands	x0, x24, x7, asr #54
    dfe4:	a3bbc0dd 	.inst	0xa3bbc0dd ; undefined
    dfe8:	e1920f7c 	.inst	0xe1920f7c ; undefined
    dfec:	407bfa1e 	.inst	0x407bfa1e ; undefined
    dff0:	239aaee2 	.inst	0x239aaee2 ; undefined
    dff4:	d88c41c9 	prfm	plil1strm, fffffffffff2682c <strerror@plt+0xfffffffffff20cfc>
    dff8:	a2af9c89 	.inst	0xa2af9c89 ; undefined
    dffc:	eb010767 	subs	x7, x27, x1, lsl #1
    e000:	b5369846 	cbnz	x6, 7b308 <strerror@plt+0x757d8>
    e004:	286e409f 	ldnp	wzr, w16, [x4, #-144]
    e008:	ba28e4de 	.inst	0xba28e4de ; undefined
    e00c:	2c97136b 	stp	s11, s4, [x27], #184
    e010:	58a36719 	ldr	x25, fffffffffff54cf0 <strerror@plt+0xfffffffffff4f1c0>
    e014:	08efa3c8 	.inst	0x08efa3c8 ; undefined
    e018:	19808172 	ldapursb	x18, [x11, #8]
    e01c:	457cfde2 	.inst	0x457cfde2 ; undefined
    e020:	37c03d23 	tbnz	w3, #24, e7c4 <strerror@plt+0x8c94>
    e024:	15a65fb6 	b	69a5efc <strerror@plt+0x69a03cc>
    e028:	a9077b62 	stp	x2, x30, [x27, #112]
    e02c:	2b1eef27 	.inst	0x2b1eef27 ; undefined
    e030:	c439de14 	ld1b	{z20.d}, p7/z, [z16.d, #25]
    e034:	3ca26b88 	str	q8, [x28, x2]
    e038:	85d42d0f 	prfh	#15, p3, [x8, #20, mul vl]
    e03c:	c2656453 	.inst	0xc2656453 ; undefined
    e040:	9e1c798f 	.inst	0x9e1c798f ; undefined
    e044:	267847f4 	.inst	0x267847f4 ; undefined
    e048:	b777d227 	tbnz	x7, #46, da8c <strerror@plt+0x7f5c>
    e04c:	843c984f 	ld1sb	{z15.s}, p6/z, [z2.s, #28]
    e050:	e7013383 	.inst	0xe7013383 ; undefined
    e054:	2a1136a5 	orr	w5, w21, w17, lsl #13
    e058:	5fee289b 	.inst	0x5fee289b ; undefined
    e05c:	2a9aca83 	.inst	0x2a9aca83 ; undefined
    e060:	0415e9b6 	msb	z22.b, p2/m, z21.b, z13.b
    e064:	be765631 	.inst	0xbe765631 ; undefined
    e068:	4d2513f6 	.inst	0x4d2513f6 ; undefined
    e06c:	f08440d6 	adrp	x22, ffffffff08829000 <strerror@plt+0xffffffff088234d0>
    e070:	1b82b9e0 	.inst	0x1b82b9e0 ; undefined
    e074:	23717ca9 	.inst	0x23717ca9 ; undefined
    e078:	8f8f4a69 	.inst	0x8f8f4a69 ; undefined
    e07c:	872c4b3f 	.inst	0x872c4b3f ; undefined
    e080:	67bc63ce 	.inst	0x67bc63ce ; undefined
    e084:	ca5fe2a1 	eor	x1, x21, xzr, lsr #56
    e088:	52459c74 	.inst	0x52459c74 ; undefined
    e08c:	e25c4c01 	.inst	0xe25c4c01 ; undefined
    e090:	add98935 	ldp	q21, q2, [x9, #816]!
    e094:	0299027f 	.inst	0x0299027f ; undefined
    e098:	e9649999 	.inst	0xe9649999 ; undefined
    e09c:	bbffb9ff 	.inst	0xbbffb9ff ; undefined
    e0a0:	b314ff6a 	.inst	0xb314ff6a ; undefined
    e0a4:	bdaa385e 	.inst	0xbdaa385e ; undefined
    e0a8:	16085417 	b	fffffffff8223104 <strerror@plt+0xfffffffff821d5d4>
    e0ac:	a4fc1ce2 	.inst	0xa4fc1ce2 ; undefined
    e0b0:	f58d8474 	.inst	0xf58d8474 ; undefined
    e0b4:	f9f5230b 	.inst	0xf9f5230b ; undefined
    e0b8:	a62fcb95 	.inst	0xa62fcb95 ; undefined
    e0bc:	a216253a 	.inst	0xa216253a ; undefined
    e0c0:	7ac3c690 	.inst	0x7ac3c690 ; undefined
    e0c4:	5de253c9 	.inst	0x5de253c9 ; undefined
    e0c8:	bf750b9e 	.inst	0xbf750b9e ; undefined
    e0cc:	bc1497cf 	str	s15, [x30], #-183
    e0d0:	96a350b4 	bl	fffffffffa8e23a0 <strerror@plt+0xfffffffffa8dc870>
    e0d4:	1a84dbd1 	.inst	0x1a84dbd1 ; undefined
    e0d8:	033206fc 	.inst	0x033206fc ; undefined
    e0dc:	c8ad5373 	.inst	0xc8ad5373 ; undefined
    e0e0:	fe948bbe 	.inst	0xfe948bbe ; undefined
    e0e4:	0eecf800 	.inst	0x0eecf800 ; undefined
    e0e8:	19880660 	cpyfe	[x0]!, [x8]!, x19!
    e0ec:	80e22bd3 	.inst	0x80e22bd3 ; undefined
    e0f0:	feb669f1 	.inst	0xfeb669f1 ; undefined
    e0f4:	68951b0a 	stgp	x10, x6, [x24], #672
    e0f8:	54d20404 	b.mi	fffffffffffb2178 <strerror@plt+0xfffffffffffac648>  // b.first
    e0fc:	41cbd893 	.inst	0x41cbd893 ; undefined
    e100:	5c8c3bb0 	ldr	d16, fffffffffff26874 <strerror@plt+0xfffffffffff20d44>
    e104:	4d5d8d8a 	.inst	0x4d5d8d8a ; undefined
    e108:	69fa6d30 	ldpsw	x16, x27, [x9, #-48]!
    e10c:	dc2be36e 	.inst	0xdc2be36e ; undefined
    e110:	5c6a29eb 	ldr	d11, e264c <strerror@plt+0xdcb1c>
    e114:	e1b6d565 	.inst	0xe1b6d565 ; undefined
    e118:	02648788 	.inst	0x02648788 ; undefined
    e11c:	27482bbf 	.inst	0x27482bbf ; undefined
    e120:	b123720f 	adds	x15, x16, #0x8dc
    e124:	5138abbe 	sub	w30, w29, #0xe2a
    e128:	2dc45161 	ldp	s1, s20, [x11, #32]!
    e12c:	90d05939 	adrp	x25, ffffffffa0b32000 <strerror@plt+0xffffffffa0b2c4d0>
    e130:	e6e110ea 	.inst	0xe6e110ea ; undefined
    e134:	f6b44609 	.inst	0xf6b44609 ; undefined
    e138:	f985840a 	prfm	plil2keep, [x0, #2824]
    e13c:	12ba0bde 	mov	w30, #0x2fa1ffff            	// #799145983
    e140:	09d1c4fe 	.inst	0x09d1c4fe ; undefined
    e144:	3015228e 	adr	x14, 38595 <strerror@plt+0x32a65>
    e148:	8d168c13 	.inst	0x8d168c13 ; undefined
    e14c:	b1cb5f2b 	.inst	0xb1cb5f2b ; undefined
    e150:	987d884c 	ldrsw	x12, 109258 <strerror@plt+0x103728>
    e154:	55fa9802 	.inst	0x55fa9802 ; undefined
    e158:	a7399892 	.inst	0xa7399892 ; undefined
    e15c:	e29345fc 	.inst	0xe29345fc ; undefined
    e160:	ae5cc140 	.inst	0xae5cc140 ; undefined
    e164:	94fe9c78 	bl	3fb5344 <strerror@plt+0x3faf814>
    e168:	12eb3818 	.inst	0x12eb3818 ; undefined
    e16c:	54b4b04e 	b.al	fffffffffff77774 <strerror@plt+0xfffffffffff71c44>
    e170:	4b9dc539 	.inst	0x4b9dc539 ; undefined
    e174:	8b2abaf8 	.inst	0x8b2abaf8 ; undefined
    e178:	aa0e572c 	orr	x12, x25, x14, lsl #21
    e17c:	d7f1b02c 	.inst	0xd7f1b02c ; undefined
    e180:	73ff427f 	.inst	0x73ff427f ; undefined
    e184:	71135f8a 	subs	w10, w28, #0x4d7
    e188:	141943c0 	b	65f088 <strerror@plt+0x659558>
    e18c:	bce26c9e 	.inst	0xbce26c9e ; undefined
    e190:	743928fa 	.inst	0x743928fa ; undefined
    e194:	37837eed 	tbnz	w13, #16, 15170 <strerror@plt+0xf640>
    e198:	85efd10c 	ld1rsb	{z12.h}, p4/z, [x8, #47]
    e19c:	ee14eac5 	.inst	0xee14eac5 ; undefined
    e1a0:	a4e5ff6e 	ld4h	{z14.h-z17.h}, p7/z, [x27, #20, mul vl]
    e1a4:	defe43a2 	.inst	0xdefe43a2 ; undefined
    e1a8:	cd9baf7e 	.inst	0xcd9baf7e ; undefined
    e1ac:	2f1ad7be 	.inst	0x2f1ad7be ; undefined
    e1b0:	e2dfdf77 	.inst	0xe2dfdf77 ; undefined
    e1b4:	5d0967d6 	.inst	0x5d0967d6 ; undefined
    e1b8:	05d6a1c8 	.inst	0x05d6a1c8 ; undefined
    e1bc:	5fba0dbf 	.inst	0x5fba0dbf ; undefined
    e1c0:	2efe294d 	.inst	0x2efe294d ; undefined
    e1c4:	dc863618 	.inst	0xdc863618 ; undefined
    e1c8:	a6b8326d 	.inst	0xa6b8326d ; undefined
    e1cc:	49a34780 	.inst	0x49a34780 ; undefined
    e1d0:	f8ab4a23 	prfm	pldl2strm, [x17, w11, uxtw]
    e1d4:	Address 0xe1d4 is out of bounds.


Disassembly of section .comment:

0000000000000000 <.comment>:
   0:	6e616c63 	umin	v3.8h, v3.8h, v1.8h
   4:	65762067 	fmls	z7.h, p0/m, z3.h, z22.h
   8:	6f697372 	fcmla	v18.8h, v27.8h, v9.h[1], #270
   c:	3132206e 	adds	w14, w3, #0xc88
  10:	342e312e 	cbz	w14, 5c634 <strerror@plt+0x56b04>
  14:	6e410000 	.inst	0x6e410000 ; undefined
  18:	696f7264 	ldpsw	x4, x28, [x19, #-136]
  1c:	31282064 	adds	w4, w3, #0xa08
  20:	34323633 	cbz	w19, 646e4 <strerror@plt+0x5ebb4>
  24:	2c343638 	stnp	s24, s13, [x17, #-96]
  28:	67702b20 	.inst	0x67702b20 ; undefined
  2c:	2b202c6f 	adds	w15, w3, w0, uxth #3
  30:	746c6f62 	.inst	0x746c6f62 ; undefined
  34:	6c2b202c 	stnp	d12, d8, [x1, #-336]
  38:	202c6f74 	.inst	0x202c6f74 ; undefined
  3c:	676c6d2b 	.inst	0x676c6d2b ; undefined
  40:	62202c6f 	.inst	0x62202c6f ; undefined
  44:	64657361 	.inst	0x64657361 ; undefined
  48:	206e6f20 	.inst	0x206e6f20 ; undefined
  4c:	30333572 	adr	x18, 666f9 <strerror@plt+0x60bc9>
  50:	65373635 	bfmls	z21.h, p5/m, z17.h, z23.h
  54:	6c632029 	ldnp	d9, d8, [x1, #-464]
  58:	20676e61 	.inst	0x20676e61 ; undefined
  5c:	73726576 	.inst	0x73726576 ; undefined
  60:	206e6f69 	.inst	0x206e6f69 ; undefined
  64:	302e3931 	adr	x17, 5c789 <strerror@plt+0x56c59>
  68:	2820312e 	stnp	w14, w12, [x9, #-256]
  6c:	70747468 	adr	x8, e8efb <strerror@plt+0xe33cb>
  70:	2f2f3a73 	.inst	0x2f2f3a73 ; undefined
  74:	72646e61 	.inst	0x72646e61 ; undefined
  78:	2e64696f 	.inst	0x2e64696f ; undefined
  7c:	676f6f67 	.inst	0x676f6f67 ; undefined
  80:	6f73656c 	sqshlu	v12.2d, v11.2d, #51
  84:	65637275 	fnmls	z21.h, p4/m, z19.h, z3.h
  88:	6d6f632e 	ldp	d14, d24, [x25, #-272]
  8c:	6f6f742f 	uqshl	v15.2d, v1.2d, #47
  90:	6168636c 	.inst	0x6168636c ; undefined
  94:	6c2f6e69 	stnp	d9, d27, [x19, #-272]
  98:	2d6d766c 	ldp	s12, s29, [x19, #-152]
  9c:	6a6f7270 	bics	w16, w19, w15, lsr #28
  a0:	20746365 	.inst	0x20746365 ; undefined
  a4:	36613739 	tbz	w25, #12, 2788 <__libc_init@plt-0x3248>
  a8:	66623939 	.inst	0x66623939 ; undefined
  ac:	32313834 	orr	w20, w1, #0x3fff8000
  b0:	66383161 	.inst	0x66383161 ; undefined
  b4:	37353662 	tbnz	w2, #6, ffffffffffffa780 <strerror@plt+0xffffffffffff4c50>
  b8:	37373263 	tbnz	w3, #6, ffffffffffffe704 <strerror@plt+0xffffffffffff8bd4>
  bc:	32356639 	orr	w25, w17, #0xfffff81f
  c0:	34613639 	cbz	w25, c2784 <strerror@plt+0xbcc54>
  c4:	36326261 	tbz	w1, #6, 4d10 <__libc_init@plt-0xcc0>
  c8:	32643439 	.inst	0x32643439 ; undefined
  cc:	694c0029 	ldpsw	x9, x0, [x1, #96]
  d0:	72656b6e 	.inst	0x72656b6e ; undefined
  d4:	4c4c203a 	.inst	0x4c4c203a ; undefined
  d8:	31322044 	adds	w4, w2, #0xc88
  dc:	342e312e 	cbz	w14, 5c700 <strerror@plt+0x56bd0>
	...
